(dp0
I0
ccopy_reg
_reconstructor
p1
(c__main__
Environment
p2
c__builtin__
object
p3
Ntp4
Rp5
(dp6
S'x_range'
p7
(lp8
I0
aI640
asS'obstacles'
p9
(lp10
g1
(c__main__
Obstacle
p11
g3
Ntp12
Rp13
(dp14
S'representative_point'
p15
cnumpy.core.multiarray
_reconstruct
p16
(cnumpy
ndarray
p17
(I0
tp18
S'b'
p19
tp20
Rp21
(I1
(I2
tp22
cnumpy
dtype
p23
(S'f8'
p24
I0
I1
tp25
Rp26
(I3
S'<'
p27
NNNI-1
I-1
I0
tp28
bI00
S'9\x19VXu0c@N\xcd\xde\xc0XMP@'
p29
tp30
bsS'rectangle_centers'
p31
(lp32
g16
(g17
(I0
tp33
g19
tp34
Rp35
(I1
(I2
tp36
g26
I00
S'9\x19VXu0c@N\xcd\xde\xc0XMP@'
p37
tp38
bag16
(g17
(I0
tp39
g19
tp40
Rp41
(I1
(I2
tp42
g26
I00
S'\rR\x8e\x82\xce3e@\xa6q8\x88.H:@'
p43
tp44
bag16
(g17
(I0
tp45
g19
tp46
Rp47
(I1
(I2
tp48
g26
I00
S'!\x17E\xa63\xaba@\xa3\xfdO\x9b\x93\x11J@'
p49
tp50
bag16
(g17
(I0
tp51
g19
tp52
Rp53
(I1
(I2
tp54
g26
I00
S'\x18\xe0\xad\x7f\xeaae@\x17:\xdd\x1b\xdcN2@'
p55
tp56
bag16
(g17
(I0
tp57
g19
tp58
Rp59
(I1
(I2
tp60
g26
I00
S'\x98\xaeV\xfa`\x11d@\xae\xae\xeeC\x98?!@'
p61
tp62
basS'rectangle_heights'
p63
(lp64
cnumpy.core.multiarray
scalar
p65
(g26
S'\x0ed\x03\xd2\x8b\x89G@'
p66
tp67
Rp68
ag65
(g26
S'\x94\x82c\xaem2F@'
p69
tp70
Rp71
ag65
(g26
S'\x9d\xb8\xabyO\xa1<@'
p72
tp73
Rp74
ag65
(g26
S'\x01\xe1\xf4\xbf\xf5\xe5C@'
p75
tp76
Rp77
ag65
(g26
S'\x85\x1b]^\xb9c9@'
p78
tp79
Rp80
asS'lowest_point'
p81
g16
(g17
(I0
tp82
g19
tp83
Rp84
(I1
(I2
tp85
g26
I00
S'\x98\xaeV\xfa`\x11d@\xae\xd9\xdc4BH\x10\xc0'
p86
tp87
bsS'rectangle_widths'
p88
(lp89
g65
(g26
S'\xc6\x9e{\xe2\x93Y9@'
p90
tp91
Rp92
ag65
(g26
S'a4d\x84s\x072@'
p93
tp94
Rp95
ag65
(g26
S'D\xe7\xcc(\x8f\x152@'
p96
tp97
Rp98
ag65
(g26
S"^*'d{.2@"
p99
tp100
Rp101
ag65
(g26
S'c\xc6?#N\x92+@'
p102
tp103
Rp104
asbag1
(g11
g3
Ntp105
Rp106
(dp107
g15
g16
(g17
(I0
tp108
g19
tp109
Rp110
(I1
(I2
tp111
g26
I00
S'\xbdg\x1b\xfe\x85\xc9\x83@@\xdd\x90\t\xd6Wt@'
p112
tp113
bsg31
(lp114
g16
(g17
(I0
tp115
g19
tp116
Rp117
(I1
(I2
tp118
g26
I00
S'\xbdg\x1b\xfe\x85\xc9\x83@@\xdd\x90\t\xd6Wt@'
p119
tp120
basg63
(lp121
g65
(g26
S'_\x01tK\xbfX>@'
p122
tp123
Rp124
asg81
g16
(g17
(I0
tp125
g19
tp126
Rp127
(I1
(I2
tp128
g26
I00
S'\xbdg\x1b\xfe\x85\xc9\x83@5=5\x0f\x10es@'
p129
tp130
bsg88
(lp131
g65
(g26
S'\xbb\x92\xa6i\xaeq,@'
p132
tp133
Rp134
asbag1
(g11
g3
Ntp135
Rp136
(dp137
g15
g16
(g17
(I0
tp138
g19
tp139
Rp140
(I1
(I2
tp141
g26
I00
S'\x079&a\x01<T@amq(K\xe4r@'
p142
tp143
bsg31
(lp144
g16
(g17
(I0
tp145
g19
tp146
Rp147
(I1
(I2
tp148
g26
I00
S'\x079&a\x01<T@amq(K\xe4r@'
p149
tp150
basg63
(lp151
g65
(g26
S'\xd2lx;m\xe9-@'
p152
tp153
Rp154
asg81
g16
(g17
(I0
tp155
g19
tp156
Rp157
(I1
(I2
tp158
g26
I00
S'\x079&a\x01<T@\xae\x8b\x83s\xa5lr@'
p159
tp160
bsg88
(lp161
g65
(g26
S'\x92\xb9}\xab\xacd5@'
p162
tp163
Rp164
asbag1
(g11
g3
Ntp165
Rp166
(dp167
g15
g16
(g17
(I0
tp168
g19
tp169
Rp170
(I1
(I2
tp171
g26
I00
S'\xc8B\xbb\xd4\xfa\xf95@W\xed\x04S\x82\x85[@'
p172
tp173
bsg31
(lp174
g16
(g17
(I0
tp175
g19
tp176
Rp177
(I1
(I2
tp178
g26
I00
S'\xc8B\xbb\xd4\xfa\xf95@W\xed\x04S\x82\x85[@'
p179
tp180
basg63
(lp181
g65
(g26
S'\xb4\xbarRP\x072@'
p182
tp183
Rp184
asg81
g16
(g17
(I0
tp185
g19
tp186
Rp187
(I1
(I2
tp188
g26
I00
S'\xc8B\xbb\xd4\xfa\xf95@\x00\x96\xb6H\x98DY@'
p189
tp190
bsg88
(lp191
g65
(g26
S'\xe4\x13(!\xd6\xd6*@'
p192
tp193
Rp194
asbag1
(g11
g3
Ntp195
Rp196
(dp197
g15
g16
(g17
(I0
tp198
g19
tp199
Rp200
(I1
(I2
tp201
g26
I00
S'\xe61D\x14|Cz@~\xc0\x7f4\x0bfh@'
p202
tp203
bsg31
(lp204
g16
(g17
(I0
tp205
g19
tp206
Rp207
(I1
(I2
tp208
g26
I00
S'\xe61D\x14|Cz@~\xc0\x7f4\x0bfh@'
p209
tp210
basg63
(lp211
g65
(g26
S"h\x01\xc2'\x81\x81<@"
p212
tp213
Rp214
asg81
g16
(g17
(I0
tp215
g19
tp216
Rp217
(I1
(I2
tp218
g26
I00
S'\xe61D\x14|Cz@h\xa0\x03"\xf3\x9df@'
p219
tp220
bsg88
(lp221
g65
(g26
S'\xc9w\rA\xb8\xbe0@'
p222
tp223
Rp224
asbag1
(g11
g3
Ntp225
Rp226
(dp227
g15
g16
(g17
(I0
tp228
g19
tp229
Rp230
(I1
(I2
tp231
g26
I00
S'E$\x1b\x87C\xdd\x81@\xa6qFA\r\xd6x@'
p232
tp233
bsg31
(lp234
g16
(g17
(I0
tp235
g19
tp236
Rp237
(I1
(I2
tp238
g26
I00
S'E$\x1b\x87C\xdd\x81@\xa6qFA\r\xd6x@'
p239
tp240
bag16
(g17
(I0
tp241
g19
tp242
Rp243
(I1
(I2
tp244
g26
I00
S'\xb9\xcei\xd7\n\x16\x82@\xa6\xff\xe9K*\xdew@'
p245
tp246
bag16
(g17
(I0
tp247
g19
tp248
Rp249
(I1
(I2
tp250
g26
I00
S'\xb0\xed_\xb0U\x04\x82@\x1a}\xb40\xb6Jz@'
p251
tp252
bag16
(g17
(I0
tp253
g19
tp254
Rp255
(I1
(I2
tp256
g26
I00
S'\xa8`X;\x85\xcf\x81@\xdc\x87\xc7\xc3\xea\x04y@'
p257
tp258
basg63
(lp259
g65
(g26
S'\xc3\xbbb\xb5\xe6y;@'
p260
tp261
Rp262
ag65
(g26
S'\x82\xcd\x85\x08\xb1w@@'
p263
tp264
Rp265
ag65
(g26
S'6Ff\\\xce\xb6C@'
p266
tp267
Rp268
ag65
(g26
S'\x1d\xf6*7\x1b\x86H@'
p269
tp270
Rp271
asg81
g16
(g17
(I0
tp272
g19
tp273
Rp274
(I1
(I2
tp275
g26
I00
S'\xb9\xcei\xd7\n\x16\x82@\xce\xa2a;\xaf\xd6v@'
p276
tp277
bsg88
(lp278
g65
(g26
S'\xbc:X?jr7@'
p279
tp280
Rp281
ag65
(g26
S'2`h\x99\\U8@'
p282
tp283
Rp284
ag65
(g26
S'K\x1d\x150IN0@'
p285
tp286
Rp287
ag65
(g26
S'\x07\x04\x92\xa0\x9f\xaf$@'
p288
tp289
Rp290
asbag1
(g11
g3
Ntp291
Rp292
(dp293
g15
g16
(g17
(I0
tp294
g19
tp295
Rp296
(I1
(I2
tp297
g26
I00
S'\xa3\xc7\x93\x1f\x92\r\x80@F\x13\x8d\xcf\xa0\xe3/@'
p298
tp299
bsg31
(lp300
g16
(g17
(I0
tp301
g19
tp302
Rp303
(I1
(I2
tp304
g26
I00
S'\xa3\xc7\x93\x1f\x92\r\x80@F\x13\x8d\xcf\xa0\xe3/@'
p305
tp306
bag16
(g17
(I0
tp307
g19
tp308
Rp309
(I1
(I2
tp310
g26
I00
S'\x9a?\x9a\xda\xd0\xf6\x7f@\xd7\xcd\x15\x81\xad D@'
p311
tp312
bag16
(g17
(I0
tp313
g19
tp314
Rp315
(I1
(I2
tp316
g26
I00
S'\x85\xd0\xd9\xba\xb5\x01\x80@\xa0I\xd9V\xbcw\xfb?'
p317
tp318
basg63
(lp319
g65
(g26
S'\x88\x9f\xc9~\x02\xb9H@'
p320
tp321
Rp322
ag65
(g26
S'\x9d\x18\xea\x9b\xf5\x9e+@'
p323
tp324
Rp325
ag65
(g26
S'\xa7\xfb\xf4\xb5|\xf17@'
p326
tp327
Rp328
asg81
g16
(g17
(I0
tp329
g19
tp330
Rp331
(I1
(I2
tp332
g26
I00
S'\x85\xd0\xd9\xba\xb5\x01\x80@s\xd2\x19+\x85\x82$\xc0'
p333
tp334
bsg88
(lp335
g65
(g26
S'\xc4a\x98\xee\xa8a8@'
p336
tp337
Rp338
ag65
(g26
S'\xf4\x13\xca\x1f\x1928@'
p339
tp340
Rp341
ag65
(g26
S'~W\xfb\xa1gD$@'
p342
tp343
Rp344
asbag1
(g11
g3
Ntp345
Rp346
(dp347
g15
g16
(g17
(I0
tp348
g19
tp349
Rp350
(I1
(I2
tp351
g26
I00
S'\xf0n\xbc$t\xd2I@\x1e\t\xddEDgg@'
p352
tp353
bsg31
(lp354
g16
(g17
(I0
tp355
g19
tp356
Rp357
(I1
(I2
tp358
g26
I00
S'\xf0n\xbc$t\xd2I@\x1e\t\xddEDgg@'
p359
tp360
basg63
(lp361
g65
(g26
S'\xfcB\xf2\xd5\x1a\x05F@'
p362
tp363
Rp364
asg81
g16
(g17
(I0
tp365
g19
tp366
Rp367
(I1
(I2
tp368
g26
I00
S'\xf0n\xbc$t\xd2I@\xbe\xc0\x1e\xeb\xa0\xa6d@'
p369
tp370
bsg88
(lp371
g65
(g26
S'FX\x10\xcb\xfdD6@'
p372
tp373
Rp374
asbag1
(g11
g3
Ntp375
Rp376
(dp377
g15
g16
(g17
(I0
tp378
g19
tp379
Rp380
(I1
(I2
tp381
g26
I00
S'\xcei:~\xa6\xd1l@D\xa1\x81 \xb6%u@'
p382
tp383
bsg31
(lp384
g16
(g17
(I0
tp385
g19
tp386
Rp387
(I1
(I2
tp388
g26
I00
S'\xcei:~\xa6\xd1l@D\xa1\x81 \xb6%u@'
p389
tp390
basg63
(lp391
g65
(g26
S'\xc6\x1a\xbb\xda>\xdc%@'
p392
tp393
Rp394
asg81
g16
(g17
(I0
tp395
g19
tp396
Rp397
(I1
(I2
tp398
g26
I00
S'\xcei:~\xa6\xd1l@\xd9\xb4\x16%E\xcet@'
p399
tp400
bsg88
(lp401
g65
(g26
S'\xec}\xd8\x12E\xd0;@'
p402
tp403
Rp404
asbag1
(g11
g3
Ntp405
Rp406
(dp407
g15
g16
(g17
(I0
tp408
g19
tp409
Rp410
(I1
(I2
tp411
g26
I00
S"0\xb92u\xfb\xb2l@PK\xd5\xb9\xe4'd@"
p412
tp413
bsg31
(lp414
g16
(g17
(I0
tp415
g19
tp416
Rp417
(I1
(I2
tp418
g26
I00
S"0\xb92u\xfb\xb2l@PK\xd5\xb9\xe4'd@"
p419
tp420
bag16
(g17
(I0
tp421
g19
tp422
Rp423
(I1
(I2
tp424
g26
I00
S'\xea/\x07j\x01-l@K\x02cS\x84zb@'
p425
tp426
basg63
(lp427
g65
(g26
S'\x1a\xf0-\x83\x19\xf8A@'
p428
tp429
Rp430
ag65
(g26
S'p=\xb9\xf7\x8aw/@'
p431
tp432
Rp433
asg81
g16
(g17
(I0
tp434
g19
tp435
Rp436
(I1
(I2
tp437
g26
I00
S'\xea/\x07j\x01-l@`8\xa5\xfb\xc7~a@'
p438
tp439
bsg88
(lp440
g65
(g26
S"\xfeN')\x07:/@"
p441
tp442
Rp443
ag65
(g26
S'vR#Y\xdfJ3@'
p444
tp445
Rp446
asbag1
(g11
g3
Ntp447
Rp448
(dp449
g15
g16
(g17
(I0
tp450
g19
tp451
Rp452
(I1
(I2
tp453
g26
I00
S'OTGGUYz@T"\x90\xe5\x1c\x15>@'
p454
tp455
bsg31
(lp456
g16
(g17
(I0
tp457
g19
tp458
Rp459
(I1
(I2
tp460
g26
I00
S'OTGGUYz@T"\x90\xe5\x1c\x15>@'
p461
tp462
basg63
(lp463
g65
(g26
S'JV\xfa/\x12(+@'
p464
tp465
Rp466
asg81
g16
(g17
(I0
tp467
g19
tp468
Rp469
(I1
(I2
tp470
g26
I00
S'OTGGUYz@\xc2\x8c\x91Y\x18K7@'
p471
tp472
bsg88
(lp473
g65
(g26
S'0\xf7O\xa9\xbc\x1f)@'
p474
tp475
Rp476
asbag1
(g11
g3
Ntp477
Rp478
(dp479
g15
g16
(g17
(I0
tp480
g19
tp481
Rp482
(I1
(I2
tp483
g26
I00
S'\x04\r-\x94\x9e\x1bk@j\xcb\x91\x8c\xdb\x83W@'
p484
tp485
bsg31
(lp486
g16
(g17
(I0
tp487
g19
tp488
Rp489
(I1
(I2
tp490
g26
I00
S'\x04\r-\x94\x9e\x1bk@j\xcb\x91\x8c\xdb\x83W@'
p491
tp492
basg63
(lp493
g65
(g26
S'\rb\x80XR\x8d:@'
p494
tp495
Rp496
asg81
g16
(g17
(I0
tp497
g19
tp498
Rp499
(I1
(I2
tp500
g26
I00
S'\x04\r-\x94\x9e\x1bk@(\xbf\x81A12T@'
p501
tp502
bsg88
(lp503
g65
(g26
S'\xfeH\xc3\xcd3t1@'
p504
tp505
Rp506
asbag1
(g11
g3
Ntp507
Rp508
(dp509
g15
g16
(g17
(I0
tp510
g19
tp511
Rp512
(I1
(I2
tp513
g26
I00
S'g\x0b\xdf\x1f\xce\xe7z@\t\xab\xfc\xaa\xab\xa4u@'
p514
tp515
bsg31
(lp516
g16
(g17
(I0
tp517
g19
tp518
Rp519
(I1
(I2
tp520
g26
I00
S'g\x0b\xdf\x1f\xce\xe7z@\t\xab\xfc\xaa\xab\xa4u@'
p521
tp522
bag16
(g17
(I0
tp523
g19
tp524
Rp525
(I1
(I2
tp526
g26
I00
S'\x82nv\xbb\xe3&z@)\xdbWHL]t@'
p527
tp528
bag16
(g17
(I0
tp529
g19
tp530
Rp531
(I1
(I2
tp532
g26
I00
S'&3\n\x9c\xce\x97y@\x94\x1d\x154\x86\xbav@'
p533
tp534
basg63
(lp535
g65
(g26
S'\xb0O\x87\x9f\xf7U3@'
p536
tp537
Rp538
ag65
(g26
S'\xbe\x1f\x9d\xb6\xa0\xc1A@'
p539
tp540
Rp541
ag65
(g26
S'\r\x13R\x96\x987D@'
p542
tp543
Rp544
asg81
g16
(g17
(I0
tp545
g19
tp546
Rp547
(I1
(I2
tp548
g26
I00
S'\x82nv\xbb\xe3&z@-\t\xee<2As@'
p549
tp550
bsg88
(lp551
g65
(g26
S'\xfeM\xfd/\x92v8@'
p552
tp553
Rp554
ag65
(g26
S'\x85_N\x98n\xfb:@'
p555
tp556
Rp557
ag65
(g26
S'\xc6\x10\xc9\xb3f20@'
p558
tp559
Rp560
asbag1
(g11
g3
Ntp561
Rp562
(dp563
g15
g16
(g17
(I0
tp564
g19
tp565
Rp566
(I1
(I2
tp567
g26
I00
S'\xf6\x07\x89d|\xff`@\xc7\x7f\xbdRE\x0c}@'
p568
tp569
bsg31
(lp570
g16
(g17
(I0
tp571
g19
tp572
Rp573
(I1
(I2
tp574
g26
I00
S'\xf6\x07\x89d|\xff`@\xc7\x7f\xbdRE\x0c}@'
p575
tp576
basg63
(lp577
g65
(g26
S'\xacK\xad\x89\x96\xcc@@'
p578
tp579
Rp580
asg81
g16
(g17
(I0
tp581
g19
tp582
Rp583
(I1
(I2
tp584
g26
I00
S'\xf6\x07\x89d|\xff`@\x0c\xab"\xea{\xff{@'
p585
tp586
bsg88
(lp587
g65
(g26
S'E\xcb\x00\xc1\xaaQ:@'
p588
tp589
Rp590
asbag1
(g11
g3
Ntp591
Rp592
(dp593
g15
g16
(g17
(I0
tp594
g19
tp595
Rp596
(I1
(I2
tp597
g26
I00
S'\x0e%\xa1\xb5\x12\x17O@\xd3\x8a\xe2\xddo\xa2n@'
p598
tp599
bsg31
(lp600
g16
(g17
(I0
tp601
g19
tp602
Rp603
(I1
(I2
tp604
g26
I00
S'\x0e%\xa1\xb5\x12\x17O@\xd3\x8a\xe2\xddo\xa2n@'
p605
tp606
basg63
(lp607
g65
(g26
S'\x80L\x7f\xdb9\xc8.@'
p608
tp609
Rp610
asg81
g16
(g17
(I0
tp611
g19
tp612
Rp613
(I1
(I2
tp614
g26
I00
S'\x0e%\xa1\xb5\x12\x17O@o\x90\x06\x0f.\xacm@'
p615
tp616
bsg88
(lp617
g65
(g26
S"\x88\xf9'lp\x862@"
p618
tp619
Rp620
asbag1
(g11
g3
Ntp621
Rp622
(dp623
g15
g16
(g17
(I0
tp624
g19
tp625
Rp626
(I1
(I2
tp627
g26
I00
S'\xb6\xc1\xca\x03&\x99c@"[\xe4\xf3u\xf9l@'
p628
tp629
bsg31
(lp630
g16
(g17
(I0
tp631
g19
tp632
Rp633
(I1
(I2
tp634
g26
I00
S'\xb6\xc1\xca\x03&\x99c@"[\xe4\xf3u\xf9l@'
p635
tp636
basg63
(lp637
g65
(g26
S'\x88\x8b@98\xcc/@'
p638
tp639
Rp640
asg81
g16
(g17
(I0
tp641
g19
tp642
Rp643
(I1
(I2
tp644
g26
I00
S'\xb6\xc1\xca\x03&\x99c@\xc6V\x1a2\x14\xfbk@'
p645
tp646
bsg88
(lp647
g65
(g26
S'\xd65W\xbc\x91=$@'
p648
tp649
Rp650
asbag1
(g11
g3
Ntp651
Rp652
(dp653
g15
g16
(g17
(I0
tp654
g19
tp655
Rp656
(I1
(I2
tp657
g26
I00
S'X\xa6\xd7\x17\x11\xbb(@\xbeFWP\x9a\xedn@'
p658
tp659
bsg31
(lp660
g16
(g17
(I0
tp661
g19
tp662
Rp663
(I1
(I2
tp664
g26
I00
S'X\xa6\xd7\x17\x11\xbb(@\xbeFWP\x9a\xedn@'
p665
tp666
basg63
(lp667
g65
(g26
S'\\5\x0bz3u@@'
p668
tp669
Rp670
asg81
g16
(g17
(I0
tp671
g19
tp672
Rp673
(I1
(I2
tp674
g26
I00
S'X\xa6\xd7\x17\x11\xbb(@\x12\xe0\x15\xe1\xf3\xdel@'
p675
tp676
bsg88
(lp677
g65
(g26
S'}\xd7\xd3\xfb<X8@'
p678
tp679
Rp680
asbag1
(g11
g3
Ntp681
Rp682
(dp683
g15
g16
(g17
(I0
tp684
g19
tp685
Rp686
(I1
(I2
tp687
g26
I00
S'\xa6\xc6\xc4\x88;#\x83@\x06\x9d\xbc\x91\x1a\x16l@'
p688
tp689
bsg31
(lp690
g16
(g17
(I0
tp691
g19
tp692
Rp693
(I1
(I2
tp694
g26
I00
S'\xa6\xc6\xc4\x88;#\x83@\x06\x9d\xbc\x91\x1a\x16l@'
p695
tp696
bag16
(g17
(I0
tp697
g19
tp698
Rp699
(I1
(I2
tp700
g26
I00
S'+Ep5vn\x82@\x17\x0f\xc2\xf3r\x99m@'
p701
tp702
bag16
(g17
(I0
tp703
g19
tp704
Rp705
(I1
(I2
tp706
g26
I00
S'\x11&\x914\x1a:\x83@lk\xda\xba\x87cg@'
p707
tp708
bag16
(g17
(I0
tp709
g19
tp710
Rp711
(I1
(I2
tp712
g26
I00
S'\xce\xa4\xb7\xc5\xb2\x9d\x83@\xa8\xbcK\xf0\xfeKj@'
p713
tp714
bag16
(g17
(I0
tp715
g19
tp716
Rp717
(I1
(I2
tp718
g26
I00
S'\x98\xa8cg\xb3*\x82@F\xdfsR\x15\x80l@'
p719
tp720
basg63
(lp721
g65
(g26
S'\x99o\xb4f\xa3\x9eF@'
p722
tp723
Rp724
ag65
(g26
S'\x00$,qf\xd6F@'
p725
tp726
Rp727
ag65
(g26
S'^\xd67\xdf\xc2c@@'
p728
tp729
Rp730
ag65
(g26
S'\xd4<\xa38e\x8a.@'
p731
tp732
Rp733
ag65
(g26
S'Q\xda\xef\xae\x18\x03D@'
p734
tp735
Rp736
asg81
g16
(g17
(I0
tp737
g19
tp738
Rp739
(I1
(I2
tp740
g26
I00
S'\x11&\x914\x1a:\x83@\xa0p\xf3^\x0fWe@'
p741
tp742
bsg88
(lp743
g65
(g26
S'(\xfaR+\x9f\xe7<@'
p744
tp745
Rp746
ag65
(g26
S'\x1a\xc3TT\xa3\x902@'
p747
tp748
Rp749
ag65
(g26
S'\xe8\x9f\xf2m\xea\xff)@'
p750
tp751
Rp752
ag65
(g26
S'\xb2\x96\x10\xfc/\xba8@'
p753
tp754
Rp755
ag65
(g26
S'o\xd6\xd7\x05pk4@'
p756
tp757
Rp758
asbag1
(g11
g3
Ntp759
Rp760
(dp761
g15
g16
(g17
(I0
tp762
g19
tp763
Rp764
(I1
(I2
tp765
g26
I00
S'(\xa7\x98z"\xc1v@l\xa1O:J\xd3Y@'
p766
tp767
bsg31
(lp768
g16
(g17
(I0
tp769
g19
tp770
Rp771
(I1
(I2
tp772
g26
I00
S'(\xa7\x98z"\xc1v@l\xa1O:J\xd3Y@'
p773
tp774
basg63
(lp775
g65
(g26
S'u5\x05G\xc0\xa1>@'
p776
tp777
Rp778
asg81
g16
(g17
(I0
tp779
g19
tp780
Rp781
(I1
(I2
tp782
g26
I00
S'(\xa7\x98z"\xc1v@\xbd\xfan1\x12\xffU@'
p783
tp784
bsg88
(lp785
g65
(g26
S'B\xb6$P\xbe\xb70@'
p786
tp787
Rp788
asbag1
(g11
g3
Ntp789
Rp790
(dp791
g15
g16
(g17
(I0
tp792
g19
tp793
Rp794
(I1
(I2
tp795
g26
I00
S'\x14+\x84\xb6\x1bK~@\xfcm\xfc\xb9\x94\xdd\x12@'
p796
tp797
bsg31
(lp798
g16
(g17
(I0
tp799
g19
tp800
Rp801
(I1
(I2
tp802
g26
I00
S'\x14+\x84\xb6\x1bK~@\xfcm\xfc\xb9\x94\xdd\x12@'
p803
tp804
basg63
(lp805
g65
(g26
S'/\x01\xa0\xbay\xd3<@'
p806
tp807
Rp808
asg81
g16
(g17
(I0
tp809
g19
tp810
Rp811
(I1
(I2
tp812
g26
I00
S'\x14+\x84\xb6\x1bK~@1\xca\xa1]\xafd#\xc0'
p813
tp814
bsg88
(lp815
g65
(g26
S'^i\xba\x8e\x11C7@'
p816
tp817
Rp818
asbag1
(g11
g3
Ntp819
Rp820
(dp821
g15
g16
(g17
(I0
tp822
g19
tp823
Rp824
(I1
(I2
tp825
g26
I00
S'6Q\xf5\xaaR\xe7\x80@R2\xe9\xfb\x15\x8f^@'
p826
tp827
bsg31
(lp828
g16
(g17
(I0
tp829
g19
tp830
Rp831
(I1
(I2
tp832
g26
I00
S'6Q\xf5\xaaR\xe7\x80@R2\xe9\xfb\x15\x8f^@'
p833
tp834
basg63
(lp835
g65
(g26
S'\x16\xd0\x9d\x08\x99\xf8B@'
p836
tp837
Rp838
asg81
g16
(g17
(I0
tp839
g19
tp840
Rp841
(I1
(I2
tp842
g26
I00
S'6Q\xf5\xaaR\xe7\x80@L\xbe\xc1\xb9\xef\xd0Y@'
p843
tp844
bsg88
(lp845
g65
(g26
S'\xf3Q\x96e\x94\xea2@'
p846
tp847
Rp848
asbag1
(g11
g3
Ntp849
Rp850
(dp851
g15
g16
(g17
(I0
tp852
g19
tp853
Rp854
(I1
(I2
tp855
g26
I00
S'V\xfa\xb0\xc0T\x11d@2\x0fs\nV\x8ev@'
p856
tp857
bsg31
(lp858
g16
(g17
(I0
tp859
g19
tp860
Rp861
(I1
(I2
tp862
g26
I00
S'V\xfa\xb0\xc0T\x11d@2\x0fs\nV\x8ev@'
p863
tp864
basg63
(lp865
g65
(g26
S'\xd4\xd0\xb1\xba\xd8\xd1:@'
p866
tp867
Rp868
asg81
g16
(g17
(I0
tp869
g19
tp870
Rp871
(I1
(I2
tp872
g26
I00
S'V\xfa\xb0\xc0T\x11d@\xab\x80\x9dD\xc7\xb7u@'
p873
tp874
bsg88
(lp875
g65
(g26
S'\xd6/c\xd3\xa386@'
p876
tp877
Rp878
asbag1
(g11
g3
Ntp879
Rp880
(dp881
g15
g16
(g17
(I0
tp882
g19
tp883
Rp884
(I1
(I2
tp885
g26
I00
S'&\x92\xc0\x17|fq@\x9b\x0c)\xe0\xd5\x19y@'
p886
tp887
bsg31
(lp888
g16
(g17
(I0
tp889
g19
tp890
Rp891
(I1
(I2
tp892
g26
I00
S'&\x92\xc0\x17|fq@\x9b\x0c)\xe0\xd5\x19y@'
p893
tp894
basg63
(lp895
g65
(g26
S'IY\x89>\x9bU2@'
p896
tp897
Rp898
asg81
g16
(g17
(I0
tp899
g19
tp900
Rp901
(I1
(I2
tp902
g26
I00
S'&\x92\xc0\x17|fq@\xd1\xc14\x06)\x87x@'
p903
tp904
bsg88
(lp905
g65
(g26
S'\xab\x1c\x16<\xbd\xe55@'
p906
tp907
Rp908
asbag1
(g11
g3
Ntp909
Rp910
(dp911
g15
g16
(g17
(I0
tp912
g19
tp913
Rp914
(I1
(I2
tp915
g26
I00
S'x\xed71vs{@\x01HTg"=D@'
p916
tp917
bsg31
(lp918
g16
(g17
(I0
tp919
g19
tp920
Rp921
(I1
(I2
tp922
g26
I00
S'x\xed71vs{@\x01HTg"=D@'
p923
tp924
bag16
(g17
(I0
tp925
g19
tp926
Rp927
(I1
(I2
tp928
g26
I00
S'8\xfch\xc2\x0e\xa2{@k\xe1pRQ\xa4T@'
p929
tp930
basg63
(lp931
g65
(g26
S'\xc3Ks\xed9%G@'
p932
tp933
Rp934
ag65
(g26
S'\xc4Y\x90\xe6\x1b]C@'
p935
tp936
Rp937
asg81
g16
(g17
(I0
tp938
g19
tp939
Rp940
(I1
(I2
tp941
g26
I00
S'x\xed71vs{@?D5\xe1\nU1@'
p942
tp943
bsg88
(lp944
g65
(g26
S'H\xed\x1cK0q2@'
p945
tp946
Rp947
ag65
(g26
S':\xd4\xfc\xc5\t\xe4$@'
p948
tp949
Rp950
asbag1
(g11
g3
Ntp951
Rp952
(dp953
g15
g16
(g17
(I0
tp954
g19
tp955
Rp956
(I1
(I2
tp957
g26
I00
S'&\x96\xbd\xbfY\x9fS@\xaaF`\xbd\xb8)g@'
p958
tp959
bsg31
(lp960
g16
(g17
(I0
tp961
g19
tp962
Rp963
(I1
(I2
tp964
g26
I00
S'&\x96\xbd\xbfY\x9fS@\xaaF`\xbd\xb8)g@'
p965
tp966
basg63
(lp967
g65
(g26
S'[SK\x84\\\xae1@'
p968
tp969
Rp970
asg81
g16
(g17
(I0
tp971
g19
tp972
Rp973
(I1
(I2
tp974
g26
I00
S'&\x96\xbd\xbfY\x9fS@t\x91\x1b\xf5\xd2\x0ef@'
p975
tp976
bsg88
(lp977
g65
(g26
S"\xb8\xa3\x88\x8d\x92\xc2'@"
p978
tp979
Rp980
asbag1
(g11
g3
Ntp981
Rp982
(dp983
g15
g16
(g17
(I0
tp984
g19
tp985
Rp986
(I1
(I2
tp987
g26
I00
S'\xce"s\x87?\xdf\x7f@B\xa4\xadg\xb1Gs@'
p988
tp989
bsg31
(lp990
g16
(g17
(I0
tp991
g19
tp992
Rp993
(I1
(I2
tp994
g26
I00
S'\xce"s\x87?\xdf\x7f@B\xa4\xadg\xb1Gs@'
p995
tp996
bag16
(g17
(I0
tp997
g19
tp998
Rp999
(I1
(I2
tp1000
g26
I00
S'\xe0\xd7\xc7\xf6\x92[\x80@\xf0\xd6\x88\x9c\x18\xfbt@'
p1001
tp1002
basg63
(lp1003
g65
(g26
S'\xe3\xd4\x97\x0b0\xf2B@'
p1004
tp1005
Rp1006
ag65
(g26
S'\xf0v\xc38\x19\xe8G@'
p1007
tp1008
Rp1009
asg81
g16
(g17
(I0
tp1010
g19
tp1011
Rp1012
(I1
(I2
tp1013
g26
I00
S'\xce"s\x87?\xdf\x7f@\xf4&\xf4f\x8e\x18r@'
p1014
tp1015
bsg88
(lp1016
g65
(g26
S'\xcc\x0e"\x84\xaf/-@'
p1017
tp1018
Rp1019
ag65
(g26
S'\xa5,y\xfc;X.@'
p1020
tp1021
Rp1022
asbag1
(g11
g3
Ntp1023
Rp1024
(dp1025
g15
g16
(g17
(I0
tp1026
g19
tp1027
Rp1028
(I1
(I2
tp1029
g26
I00
S'i\xe1q!{n\x7f@_\x17p\xbf\xae\xceT@'
p1030
tp1031
bsg31
(lp1032
g16
(g17
(I0
tp1033
g19
tp1034
Rp1035
(I1
(I2
tp1036
g26
I00
S'i\xe1q!{n\x7f@_\x17p\xbf\xae\xceT@'
p1037
tp1038
bag16
(g17
(I0
tp1039
g19
tp1040
Rp1041
(I1
(I2
tp1042
g26
I00
S'LIo\x8a\xe4\xa9~@\xd8D\xc4\x13\x97sN@'
p1043
tp1044
bag16
(g17
(I0
tp1045
g19
tp1046
Rp1047
(I1
(I2
tp1048
g26
I00
S'\n\xd1\x8b\xa37+\x7f@\xf8\x04\x83\x0b\x8e&R@'
p1049
tp1050
bag16
(g17
(I0
tp1051
g19
tp1052
Rp1053
(I1
(I2
tp1054
g26
I00
S'Y\xf6\x9bP\xd4R~@B1f\xf3\x83\xceT@'
p1055
tp1056
basg63
(lp1057
g65
(g26
S'lg\xf3\x93\xff\xcd2@'
p1058
tp1059
Rp1060
ag65
(g26
S'\x97\x81\xf0\xcesS/@'
p1061
tp1062
Rp1063
ag65
(g26
S'\xcd\td\x7f.82@'
p1064
tp1065
Rp1066
ag65
(g26
S'\x14B\xd4!\xa8\xb7H@'
p1067
tp1068
Rp1069
asg81
g16
(g17
(I0
tp1070
g19
tp1071
Rp1072
(I1
(I2
tp1073
g26
I00
S'LIo\x8a\xe4\xa9~@\xa54\xe6\x99(\x89J@'
p1074
tp1075
bsg88
(lp1076
g65
(g26
S'z\xfd\xa7\xba[\xbb6@'
p1077
tp1078
Rp1079
ag65
(g26
S'\xda\xe3\x8e_\x95=1@'
p1080
tp1081
Rp1082
ag65
(g26
S'\xd1\xf9}\xb6\xceB3@'
p1083
tp1084
Rp1085
ag65
(g26
S'\xaf\x07\xc8\n\x1d\xba3@'
p1086
tp1087
Rp1088
asbag1
(g11
g3
Ntp1089
Rp1090
(dp1091
g15
g16
(g17
(I0
tp1092
g19
tp1093
Rp1094
(I1
(I2
tp1095
g26
I00
S'D\xd2c\x198\x8ak@\x00L50\xb5\x08n@'
p1096
tp1097
bsg31
(lp1098
g16
(g17
(I0
tp1099
g19
tp1100
Rp1101
(I1
(I2
tp1102
g26
I00
S'D\xd2c\x198\x8ak@\x00L50\xb5\x08n@'
p1103
tp1104
bag16
(g17
(I0
tp1105
g19
tp1106
Rp1107
(I1
(I2
tp1108
g26
I00
S'6\x9a\xc9\x06\x18\xe1h@|\x1e\x8b\x1aU\xdfm@'
p1109
tp1110
basg63
(lp1111
g65
(g26
S'\\\x9bh\xdb\x98(3@'
p1112
tp1113
Rp1114
ag65
(g26
S'0\x1b4\x1fqvH@'
p1115
tp1116
Rp1117
asg81
g16
(g17
(I0
tp1118
g19
tp1119
Rp1120
(I1
(I2
tp1121
g26
I00
S'6\x9a\xc9\x06\x18\xe1h@\x16\x9b\xa4\xf6\x86\xd0j@'
p1122
tp1123
bsg88
(lp1124
g65
(g26
S']\xc2\xd9-F\xe0<@'
p1125
tp1126
Rp1127
ag65
(g26
S'r\x06X\xb6tF+@'
p1128
tp1129
Rp1130
asbag1
(g11
g3
Ntp1131
Rp1132
(dp1133
g15
g16
(g17
(I0
tp1134
g19
tp1135
Rp1136
(I1
(I2
tp1137
g26
I00
S'9~\x9c\xb7\xd0\xbcq@\x1dz\x05M\xd1\x9fY@'
p1138
tp1139
bsg31
(lp1140
g16
(g17
(I0
tp1141
g19
tp1142
Rp1143
(I1
(I2
tp1144
g26
I00
S'9~\x9c\xb7\xd0\xbcq@\x1dz\x05M\xd1\x9fY@'
p1145
tp1146
basg63
(lp1147
g65
(g26
S'\xd8\xf7\xec\\/\x91A@'
p1148
tp1149
Rp1150
asg81
g16
(g17
(I0
tp1151
g19
tp1152
Rp1153
(I1
(I2
tp1154
g26
I00
S"9~\x9c\xb7\xd0\xbcq@'<\xcau\x85;U@"
p1155
tp1156
bsg88
(lp1157
g65
(g26
S'\xaa\x0e\x8ei\x89}0@'
p1158
tp1159
Rp1160
asbag1
(g11
g3
Ntp1161
Rp1162
(dp1163
g15
g16
(g17
(I0
tp1164
g19
tp1165
Rp1166
(I1
(I2
tp1167
g26
I00
S'\xe0\xcc1h_\xf7\x0b@?S\x88\xdc\xe5V{@'
p1168
tp1169
bsg31
(lp1170
g16
(g17
(I0
tp1171
g19
tp1172
Rp1173
(I1
(I2
tp1174
g26
I00
S'\xe0\xcc1h_\xf7\x0b@?S\x88\xdc\xe5V{@'
p1175
tp1176
basg63
(lp1177
g65
(g26
S'\xa2\x06+\xa2\x1f>@@'
p1178
tp1179
Rp1180
asg81
g16
(g17
(I0
tp1181
g19
tp1182
Rp1183
(I1
(I2
tp1184
g26
I00
S'\xe0\xcc1h_\xf7\x0b@\xd5\xa2e\xe2\x03Sz@'
p1185
tp1186
bsg88
(lp1187
g65
(g26
S'\xcaf\xa0\x12\x87\x153@'
p1188
tp1189
Rp1190
asbag1
(g11
g3
Ntp1191
Rp1192
(dp1193
g15
g16
(g17
(I0
tp1194
g19
tp1195
Rp1196
(I1
(I2
tp1197
g26
I00
S' \x9e;1\x1eKt@E\xa1\xcf\x02!\xefH@'
p1198
tp1199
bsg31
(lp1200
g16
(g17
(I0
tp1201
g19
tp1202
Rp1203
(I1
(I2
tp1204
g26
I00
S' \x9e;1\x1eKt@E\xa1\xcf\x02!\xefH@'
p1205
tp1206
basg63
(lp1207
g65
(g26
S'8\xe5\x8f\xa1V\xa5H@'
p1208
tp1209
Rp1210
asg81
g16
(g17
(I0
tp1211
g19
tp1212
Rp1213
(I1
(I2
tp1214
g26
I00
S' \x9e;1\x1eKt@R]\x0fd\xeb89@'
p1215
tp1216
bsg88
(lp1217
g65
(g26
S':.\xd1\xca\x12\xe03@'
p1218
tp1219
Rp1220
asbag1
(g11
g3
Ntp1221
Rp1222
(dp1223
g15
g16
(g17
(I0
tp1224
g19
tp1225
Rp1226
(I1
(I2
tp1227
g26
I00
S'\xab\x9b\xbd\x11\xbc@Z@\xd3\xd53\x19(\xb3o@'
p1228
tp1229
bsg31
(lp1230
g16
(g17
(I0
tp1231
g19
tp1232
Rp1233
(I1
(I2
tp1234
g26
I00
S'\xab\x9b\xbd\x11\xbc@Z@\xd3\xd53\x19(\xb3o@'
p1235
tp1236
basg63
(lp1237
g65
(g26
S'\xef`\x0b\xe1\xde7G@'
p1238
tp1239
Rp1240
asg81
g16
(g17
(I0
tp1241
g19
tp1242
Rp1243
(I1
(I2
tp1244
g26
I00
S'\xab\x9b\xbd\x11\xbc@Z@\xb5i\x12=,\xccl@'
p1245
tp1246
bsg88
(lp1247
g65
(g26
S'\x1c\x19z\x7f\x89G4@'
p1248
tp1249
Rp1250
asbag1
(g11
g3
Ntp1251
Rp1252
(dp1253
g15
g16
(g17
(I0
tp1254
g19
tp1255
Rp1256
(I1
(I2
tp1257
g26
I00
S'\xe8e\xc4AeP\x81@\x12,0\xf3\x133c@'
p1258
tp1259
bsg31
(lp1260
g16
(g17
(I0
tp1261
g19
tp1262
Rp1263
(I1
(I2
tp1264
g26
I00
S'\xe8e\xc4AeP\x81@\x12,0\xf3\x133c@'
p1265
tp1266
basg63
(lp1267
g65
(g26
S'\xd6h\x1d|m\xa9,@'
p1268
tp1269
Rp1270
asg81
g16
(g17
(I0
tp1271
g19
tp1272
Rp1273
(I1
(I2
tp1274
g26
I00
S'\xe8e\xc4AeP\x81@\xcb@O\x87\xc8Mb@'
p1275
tp1276
bsg88
(lp1277
g65
(g26
S'\xd6Q\x9b\xa9\x0f-0@'
p1278
tp1279
Rp1280
asbag1
(g11
g3
Ntp1281
Rp1282
(dp1283
g15
g16
(g17
(I0
tp1284
g19
tp1285
Rp1286
(I1
(I2
tp1287
g26
I00
S'.\x95\x1b$\x807}@\x03\x81\x1f\xe6\x04!h@'
p1288
tp1289
bsg31
(lp1290
g16
(g17
(I0
tp1291
g19
tp1292
Rp1293
(I1
(I2
tp1294
g26
I00
S'.\x95\x1b$\x807}@\x03\x81\x1f\xe6\x04!h@'
p1295
tp1296
basg63
(lp1297
g65
(g26
S'\x1e\x85\x88\xbf\xee\xc83@'
p1298
tp1299
Rp1300
asg81
g16
(g17
(I0
tp1301
g19
tp1302
Rp1303
(I1
(I2
tp1304
g26
I00
S'.\x95\x1b$\x807}@\xb1\xf8&\xfau\xe4f@'
p1305
tp1306
bsg88
(lp1307
g65
(g26
S'\x19{\xdc\xa2\x19\xad%@'
p1308
tp1309
Rp1310
asbag1
(g11
g3
Ntp1311
Rp1312
(dp1313
g15
g16
(g17
(I0
tp1314
g19
tp1315
Rp1316
(I1
(I2
tp1317
g26
I00
S'\xe5J\x00\xa3\x8d\xf2e@\xbeau7n\x8f[@'
p1318
tp1319
bsg31
(lp1320
g16
(g17
(I0
tp1321
g19
tp1322
Rp1323
(I1
(I2
tp1324
g26
I00
S'\xe5J\x00\xa3\x8d\xf2e@\xbeau7n\x8f[@'
p1325
tp1326
basg63
(lp1327
g65
(g26
S'\x06Z\xa4\xcfB(1@'
p1328
tp1329
Rp1330
asg81
g16
(g17
(I0
tp1331
g19
tp1332
Rp1333
(I1
(I2
tp1334
g26
I00
S'\xe5J\x00\xa3\x8d\xf2e@}\xd6\x80\xddejY@'
p1335
tp1336
bsg88
(lp1337
g65
(g26
S'^w(/r\xb8<@'
p1338
tp1339
Rp1340
asbag1
(g11
g3
Ntp1341
Rp1342
(dp1343
g15
g16
(g17
(I0
tp1344
g19
tp1345
Rp1346
(I1
(I2
tp1347
g26
I00
S'\xe0\xbc6\xb1\x06\x08w@$$\xd4\xd9\x8cEz@'
p1348
tp1349
bsg31
(lp1350
g16
(g17
(I0
tp1351
g19
tp1352
Rp1353
(I1
(I2
tp1354
g26
I00
S'\xe0\xbc6\xb1\x06\x08w@$$\xd4\xd9\x8cEz@'
p1355
tp1356
basg63
(lp1357
g65
(g26
S'?n\xbd_\x7f\xf6E@'
p1358
tp1359
Rp1360
asg81
g16
(g17
(I0
tp1361
g19
tp1362
Rp1363
(I1
(I2
tp1364
g26
I00
S'\xe0\xbc6\xb1\x06\x08w@@M\xd8\xe3$\xe6x@'
p1365
tp1366
bsg88
(lp1367
g65
(g26
S'>\x1c\x14D\x98i+@'
p1368
tp1369
Rp1370
asbag1
(g11
g3
Ntp1371
Rp1372
(dp1373
g15
g16
(g17
(I0
tp1374
g19
tp1375
Rp1376
(I1
(I2
tp1377
g26
I00
S'\x98a\x1c;k`\x82@\xcd4}y#\xf4r@'
p1378
tp1379
bsg31
(lp1380
g16
(g17
(I0
tp1381
g19
tp1382
Rp1383
(I1
(I2
tp1384
g26
I00
S'\x98a\x1c;k`\x82@\xcd4}y#\xf4r@'
p1385
tp1386
basg63
(lp1387
g65
(g26
S'C\x0bz\xf8<A6@'
p1388
tp1389
Rp1390
asg81
g16
(g17
(I0
tp1391
g19
tp1392
Rp1393
(I1
(I2
tp1394
g26
I00
S'\x98a\x1c;k`\x82@sd\xb9\x91\x19Br@'
p1395
tp1396
bsg88
(lp1397
g65
(g26
S'\xb3\xdf\xd7J\xee\x940@'
p1398
tp1399
Rp1400
asbag1
(g11
g3
Ntp1401
Rp1402
(dp1403
g15
g16
(g17
(I0
tp1404
g19
tp1405
Rp1406
(I1
(I2
tp1407
g26
I00
S"\xb8'\xbfcT\x9d}@\x94\x05e\x1b\x9c\xc6w@"
p1408
tp1409
bsg31
(lp1410
g16
(g17
(I0
tp1411
g19
tp1412
Rp1413
(I1
(I2
tp1414
g26
I00
S"\xb8'\xbfcT\x9d}@\x94\x05e\x1b\x9c\xc6w@"
p1415
tp1416
basg63
(lp1417
g65
(g26
S'\xe3%\x0f\xd4&\xedH@'
p1418
tp1419
Rp1420
asg81
g16
(g17
(I0
tp1421
g19
tp1422
Rp1423
(I1
(I2
tp1424
g26
I00
S"\xb8'\xbfcT\x9d}@6\x13$\xae\xc97v@"
p1425
tp1426
bsg88
(lp1427
g65
(g26
S'w\x12\xb5\xf0f:9@'
p1428
tp1429
Rp1430
asbag1
(g11
g3
Ntp1431
Rp1432
(dp1433
g15
g16
(g17
(I0
tp1434
g19
tp1435
Rp1436
(I1
(I2
tp1437
g26
I00
S'`pfGQ\x8cx@6K\x98\xc7a\xc6j@'
p1438
tp1439
bsg31
(lp1440
g16
(g17
(I0
tp1441
g19
tp1442
Rp1443
(I1
(I2
tp1444
g26
I00
S'`pfGQ\x8cx@6K\x98\xc7a\xc6j@'
p1445
tp1446
basg63
(lp1447
g65
(g26
S'\xc3\xe4j\x99\xfe\xe36@'
p1448
tp1449
Rp1450
asg81
g16
(g17
(I0
tp1451
g19
tp1452
Rp1453
(I1
(I2
tp1454
g26
I00
S'`pfGQ\x8cx@\xea\x9c\x01\xde!Xi@'
p1455
tp1456
bsg88
(lp1457
g65
(g26
S'\x11Q"\xd7I\x89,@'
p1458
tp1459
Rp1460
asbag1
(g11
g3
Ntp1461
Rp1462
(dp1463
g15
g16
(g17
(I0
tp1464
g19
tp1465
Rp1466
(I1
(I2
tp1467
g26
I00
S'y4\xba/[\xa5w@\x96\xce\xfa\x87\x1b\x0es@'
p1468
tp1469
bsg31
(lp1470
g16
(g17
(I0
tp1471
g19
tp1472
Rp1473
(I1
(I2
tp1474
g26
I00
S'y4\xba/[\xa5w@\x96\xce\xfa\x87\x1b\x0es@'
p1475
tp1476
basg63
(lp1477
g65
(g26
S't\x96\x9b\x01L\xecC@'
p1478
tp1479
Rp1480
asg81
g16
(g17
(I0
tp1481
g19
tp1482
Rp1483
(I1
(I2
tp1484
g26
I00
S'y4\xba/[\xa5w@/\x15\xe1\xc7V\xcfq@'
p1485
tp1486
bsg88
(lp1487
g65
(g26
S'6A#\xa6\xd7%7@'
p1488
tp1489
Rp1490
asbag1
(g11
g3
Ntp1491
Rp1492
(dp1493
g15
g16
(g17
(I0
tp1494
g19
tp1495
Rp1496
(I1
(I2
tp1497
g26
I00
S'\xad^\xd1X\xd7tu@\x0f&"\r\xf1\xfbu@'
p1498
tp1499
bsg31
(lp1500
g16
(g17
(I0
tp1501
g19
tp1502
Rp1503
(I1
(I2
tp1504
g26
I00
S'\xad^\xd1X\xd7tu@\x0f&"\r\xf1\xfbu@'
p1505
tp1506
bag16
(g17
(I0
tp1507
g19
tp1508
Rp1509
(I1
(I2
tp1510
g26
I00
S'z\xd5z5\n-s@0\xbe\x01G\xb9\xeev@'
p1511
tp1512
bag16
(g17
(I0
tp1513
g19
tp1514
Rp1515
(I1
(I2
tp1516
g26
I00
S'\x7f\xf3\xb2d\xb9qt@\x94\xf7\xe2-\x06\xb5v@'
p1517
tp1518
basg63
(lp1519
g65
(g26
S'\x8e\xda\xe9&\x15\x0cA@'
p1520
tp1521
Rp1522
ag65
(g26
S'7\xb2\xf7\xdb\xb4\xeeB@'
p1523
tp1524
Rp1525
ag65
(g26
S' \x0c\x9d\x98\xad!5@'
p1526
tp1527
Rp1528
asg81
g16
(g17
(I0
tp1529
g19
tp1530
Rp1531
(I1
(I2
tp1532
g26
I00
S'\xad^\xd1X\xd7tu@f\x88\xb3\xba/\xebt@'
p1533
tp1534
bsg88
(lp1535
g65
(g26
S'\xf2\x87\xadH4\xca,@'
p1536
tp1537
Rp1538
ag65
(g26
S'\x98\xfc\xd5@)\xdb1@'
p1539
tp1540
Rp1541
ag65
(g26
S'\xc6\xb557z\xda9@'
p1542
tp1543
Rp1544
asbag1
(g11
g3
Ntp1545
Rp1546
(dp1547
g15
g16
(g17
(I0
tp1548
g19
tp1549
Rp1550
(I1
(I2
tp1551
g26
I00
S'z\t\xdb\xee\x1a\x91v@;\xea\x17L\x0bQj@'
p1552
tp1553
bsg31
(lp1554
g16
(g17
(I0
tp1555
g19
tp1556
Rp1557
(I1
(I2
tp1558
g26
I00
S'z\t\xdb\xee\x1a\x91v@;\xea\x17L\x0bQj@'
p1559
tp1560
bag16
(g17
(I0
tp1561
g19
tp1562
Rp1563
(I1
(I2
tp1564
g26
I00
S's<\xb6\xfcQ\xebu@\xc3\x87^\xdc3\xb1l@'
p1565
tp1566
basg63
(lp1567
g65
(g26
S'Pf\xd0j\x16\x84>@'
p1568
tp1569
Rp1570
ag65
(g26
S"1`\x99\xb7\x02^'@"
p1571
tp1572
Rp1573
asg81
g16
(g17
(I0
tp1574
g19
tp1575
Rp1576
(I1
(I2
tp1577
g26
I00
S'z\t\xdb\xee\x1a\x91v@\xd6\xe3j\xe5\xc9hh@'
p1578
tp1579
bsg88
(lp1580
g65
(g26
S'\xd0\x93\xddE{\xd5<@'
p1581
tp1582
Rp1583
ag65
(g26
S'\x03^I\x03\xa4~:@'
p1584
tp1585
Rp1586
asbag1
(g11
g3
Ntp1587
Rp1588
(dp1589
g15
g16
(g17
(I0
tp1590
g19
tp1591
Rp1592
(I1
(I2
tp1593
g26
I00
S'\xe5\xc0g\xf8\xe9\xe1\x80@\xf8\xfd1H\x9a\xefD@'
p1594
tp1595
bsg31
(lp1596
g16
(g17
(I0
tp1597
g19
tp1598
Rp1599
(I1
(I2
tp1600
g26
I00
S'\xe5\xc0g\xf8\xe9\xe1\x80@\xf8\xfd1H\x9a\xefD@'
p1601
tp1602
basg63
(lp1603
g65
(g26
S'\xd3q\xa4\xda\xbdBG@'
p1604
tp1605
Rp1606
asg81
g16
(g17
(I0
tp1607
g19
tp1608
Rp1609
(I1
(I2
tp1610
g26
I00
S'\xe5\xc0g\xf8\xe9\xe1\x80@\x1d\x8a\xbf\xb5v\x9c2@'
p1611
tp1612
bsg88
(lp1613
g65
(g26
S'\xa6o\xebs&\xa61@'
p1614
tp1615
Rp1616
asbag1
(g11
g3
Ntp1617
Rp1618
(dp1619
g15
g16
(g17
(I0
tp1620
g19
tp1621
Rp1622
(I1
(I2
tp1623
g26
I00
S'\x91NEN=NU@\xdb\xba\x89&\xf2\xdam@'
p1624
tp1625
bsg31
(lp1626
g16
(g17
(I0
tp1627
g19
tp1628
Rp1629
(I1
(I2
tp1630
g26
I00
S'\x91NEN=NU@\xdb\xba\x89&\xf2\xdam@'
p1631
tp1632
basg63
(lp1633
g65
(g26
S'\x12\xeb\x0c\xb2\x1c\xabE@'
p1634
tp1635
Rp1636
asg81
g16
(g17
(I0
tp1637
g19
tp1638
Rp1639
(I1
(I2
tp1640
g26
I00
S'\x91NEN=NU@y\x1dH\x90\x8e%k@'
p1641
tp1642
bsg88
(lp1643
g65
(g26
S'\x0e~#\xfb\xa0\xfd%@'
p1644
tp1645
Rp1646
asbag1
(g11
g3
Ntp1647
Rp1648
(dp1649
g15
g16
(g17
(I0
tp1650
g19
tp1651
Rp1652
(I1
(I2
tp1653
g26
I00
S'X\xd7\xd4\xfc\x1d\xc83@\xa0^\xb9\xe5\xb8\xe3\x0f@'
p1654
tp1655
bsg31
(lp1656
g16
(g17
(I0
tp1657
g19
tp1658
Rp1659
(I1
(I2
tp1660
g26
I00
S'X\xd7\xd4\xfc\x1d\xc83@\xa0^\xb9\xe5\xb8\xe3\x0f@'
p1661
tp1662
basg63
(lp1663
g65
(g26
S'\xeecX\xb2\x0f}?@'
p1664
tp1665
Rp1666
asg81
g16
(g17
(I0
tp1667
g19
tp1668
Rp1669
(I1
(I2
tp1670
g26
I00
S"X\xd7\xd4\xfc\x1d\xc83@F\x0c\xeax!\x84'\xc0"
p1671
tp1672
bsg88
(lp1673
g65
(g26
S'\x06\xd7\xc6\xad\\\x055@'
p1674
tp1675
Rp1676
asbag1
(g11
g3
Ntp1677
Rp1678
(dp1679
g15
g16
(g17
(I0
tp1680
g19
tp1681
Rp1682
(I1
(I2
tp1683
g26
I00
S'\xf1\x97\xcc\xed\x9f p@\xd2\xc3e\xb0G}^@'
p1684
tp1685
bsg31
(lp1686
g16
(g17
(I0
tp1687
g19
tp1688
Rp1689
(I1
(I2
tp1690
g26
I00
S'\xf1\x97\xcc\xed\x9f p@\xd2\xc3e\xb0G}^@'
p1691
tp1692
basg63
(lp1693
g65
(g26
S'\xb8\xe6\xfd\x96\nEC@'
p1694
tp1695
Rp1696
asg81
g16
(g17
(I0
tp1697
g19
tp1698
Rp1699
(I1
(I2
tp1700
g26
I00
S'\xf1\x97\xcc\xed\x9f p@$J\xa6\n\x05\xacY@'
p1701
tp1702
bsg88
(lp1703
g65
(g26
S'EwA\xc8\xda\xec<@'
p1704
tp1705
Rp1706
asbag1
(g11
g3
Ntp1707
Rp1708
(dp1709
g15
g16
(g17
(I0
tp1710
g19
tp1711
Rp1712
(I1
(I2
tp1713
g26
I00
S'0\xe3\xd0\xa4@\xc4n@\xbf\x1f+$\xc7\xf8j@'
p1714
tp1715
bsg31
(lp1716
g16
(g17
(I0
tp1717
g19
tp1718
Rp1719
(I1
(I2
tp1720
g26
I00
S'0\xe3\xd0\xa4@\xc4n@\xbf\x1f+$\xc7\xf8j@'
p1721
tp1722
bag16
(g17
(I0
tp1723
g19
tp1724
Rp1725
(I1
(I2
tp1726
g26
I00
S'\x02\xfau\x1b\xbb\x03o@E\x1f\x87[\xcd\xa2k@'
p1727
tp1728
basg63
(lp1729
g65
(g26
S'\xe2\xecDvo\x99*@'
p1730
tp1731
Rp1732
ag65
(g26
S')\xa97\x85\xc9"D@'
p1733
tp1734
Rp1735
asg81
g16
(g17
(I0
tp1736
g19
tp1737
Rp1738
(I1
(I2
tp1739
g26
I00
S'\x02\xfau\x1b\xbb\x03o@ *\xe0*t\x1ei@'
p1740
tp1741
bsg88
(lp1742
g65
(g26
S'AE\xfe\x19\xaaG0@'
p1743
tp1744
Rp1745
ag65
(g26
S"4&\xb1X\x8bD'@"
p1746
tp1747
Rp1748
asbag1
(g11
g3
Ntp1749
Rp1750
(dp1751
g15
g16
(g17
(I0
tp1752
g19
tp1753
Rp1754
(I1
(I2
tp1755
g26
I00
S'8\xf8V\x14G&?@t\xcf\x1f\xd7aWw@'
p1756
tp1757
bsg31
(lp1758
g16
(g17
(I0
tp1759
g19
tp1760
Rp1761
(I1
(I2
tp1762
g26
I00
S'8\xf8V\x14G&?@t\xcf\x1f\xd7aWw@'
p1763
tp1764
basg63
(lp1765
g65
(g26
S"\x0b\xc20x\xb4\x13'@"
p1766
tp1767
Rp1768
asg81
g16
(g17
(I0
tp1769
g19
tp1770
Rp1771
(I1
(I2
tp1772
g26
I00
S'8\xf8V\x14G&?@l\x0c?\x05\x13\xfbv@'
p1773
tp1774
bsg88
(lp1775
g65
(g26
S'N#,\xb0\x15F2@'
p1776
tp1777
Rp1778
asbag1
(g11
g3
Ntp1779
Rp1780
(dp1781
g15
g16
(g17
(I0
tp1782
g19
tp1783
Rp1784
(I1
(I2
tp1785
g26
I00
S'iz\xf1\x0b\x8f\tc@\xb6\x94Y|\x07\x10{@'
p1786
tp1787
bsg31
(lp1788
g16
(g17
(I0
tp1789
g19
tp1790
Rp1791
(I1
(I2
tp1792
g26
I00
S'iz\xf1\x0b\x8f\tc@\xb6\x94Y|\x07\x10{@'
p1793
tp1794
basg63
(lp1795
g65
(g26
S'KUn\xb9\xa8J3@'
p1796
tp1797
Rp1798
asg81
g16
(g17
(I0
tp1799
g19
tp1800
Rp1801
(I1
(I2
tp1802
g26
I00
S'iz\xf1\x0b\x8f\tc@\x0c"\x8e6\xb2uz@'
p1803
tp1804
bsg88
(lp1805
g65
(g26
S'w\xda#\xe7\x8f@;@'
p1806
tp1807
Rp1808
asbag1
(g11
g3
Ntp1809
Rp1810
(dp1811
g15
g16
(g17
(I0
tp1812
g19
tp1813
Rp1814
(I1
(I2
tp1815
g26
I00
S'{\xe8Q\xae\xe9\x1dR@\xae\xe9aZ\xcf\xad_@'
p1816
tp1817
bsg31
(lp1818
g16
(g17
(I0
tp1819
g19
tp1820
Rp1821
(I1
(I2
tp1822
g26
I00
S'{\xe8Q\xae\xe9\x1dR@\xae\xe9aZ\xcf\xad_@'
p1823
tp1824
bag16
(g17
(I0
tp1825
g19
tp1826
Rp1827
(I1
(I2
tp1828
g26
I00
S'\xaa\xd3\r\xc9\x8d\xd4K@\x0c\xf1\x9b16tZ@'
p1829
tp1830
bag16
(g17
(I0
tp1831
g19
tp1832
Rp1833
(I1
(I2
tp1834
g26
I00
S'p\xfa\x9a\xcc\x97\xecL@\xe7\xe8\xd6@(\x9aY@'
p1835
tp1836
basg63
(lp1837
g65
(g26
S'3\x82\xd5kh\x0c3@'
p1838
tp1839
Rp1840
ag65
(g26
S'\xea\x83W\xc4\xac\x00C@'
p1841
tp1842
Rp1843
ag65
(g26
S'\n\xab\xcf\xce\xa7\xab=@'
p1844
tp1845
Rp1846
asg81
g16
(g17
(I0
tp1847
g19
tp1848
Rp1849
(I1
(I2
tp1850
g26
I00
S'\xaa\xd3\r\xc9\x8d\xd4K@\x12\x10\x86\x00\x0b\xb4U@'
p1851
tp1852
bsg88
(lp1853
g65
(g26
S'Q\xb6\xf7\x00\x0e\xb03@'
p1854
tp1855
Rp1856
ag65
(g26
S'\x06\xbb\x8c\x88\x10\x023@'
p1857
tp1858
Rp1859
ag65
(g26
S'+y\xb7U\xba#&@'
p1860
tp1861
Rp1862
asbag1
(g11
g3
Ntp1863
Rp1864
(dp1865
g15
g16
(g17
(I0
tp1866
g19
tp1867
Rp1868
(I1
(I2
tp1869
g26
I00
S's\xda\\cW\x05x@T\xd2\xda\xd1FGe@'
p1870
tp1871
bsg31
(lp1872
g16
(g17
(I0
tp1873
g19
tp1874
Rp1875
(I1
(I2
tp1876
g26
I00
S's\xda\\cW\x05x@T\xd2\xda\xd1FGe@'
p1877
tp1878
basg63
(lp1879
g65
(g26
S'y@\xcf\xb0-\x95G@'
p1880
tp1881
Rp1882
asg81
g16
(g17
(I0
tp1883
g19
tp1884
Rp1885
(I1
(I2
tp1886
g26
I00
S's\xda\\cW\x05x@E\xea\xc0\x1b\xa1Tb@'
p1887
tp1888
bsg88
(lp1889
g65
(g26
S'O\xe9\x93\xac\xd6\xd9;@'
p1890
tp1891
Rp1892
asbag1
(g11
g3
Ntp1893
Rp1894
(dp1895
g15
g16
(g17
(I0
tp1896
g19
tp1897
Rp1898
(I1
(I2
tp1899
g26
I00
S'\xa4\xdbNd\xb9\xce\\@bj\xd5m\xa4\xc4s@'
p1900
tp1901
bsg31
(lp1902
g16
(g17
(I0
tp1903
g19
tp1904
Rp1905
(I1
(I2
tp1906
g26
I00
S'\xa4\xdbNd\xb9\xce\\@bj\xd5m\xa4\xc4s@'
p1907
tp1908
basg63
(lp1909
g65
(g26
S'x%$\xdb\xeb{C@'
p1910
tp1911
Rp1912
asg81
g16
(g17
(I0
tp1913
g19
tp1914
Rp1915
(I1
(I2
tp1916
g26
I00
S'\xa4\xdbNd\xb9\xce\\@\n(#\xb0\xe5\x8cr@'
p1917
tp1918
bsg88
(lp1919
g65
(g26
S'X?`_\x15?,@'
p1920
tp1921
Rp1922
asbag1
(g11
g3
Ntp1923
Rp1924
(dp1925
g15
g16
(g17
(I0
tp1926
g19
tp1927
Rp1928
(I1
(I2
tp1929
g26
I00
S'H\x1b\xd9\xf7\x87\xfd`@\x12\xa4\xe7\xdb\x94\rj@'
p1930
tp1931
bsg31
(lp1932
g16
(g17
(I0
tp1933
g19
tp1934
Rp1935
(I1
(I2
tp1936
g26
I00
S'H\x1b\xd9\xf7\x87\xfd`@\x12\xa4\xe7\xdb\x94\rj@'
p1937
tp1938
bag16
(g17
(I0
tp1939
g19
tp1940
Rp1941
(I1
(I2
tp1942
g26
I00
S'\xfa[\xe5NL\x0fc@\x98\x05\xf1\x82\xfa\xc3g@'
p1943
tp1944
basg63
(lp1945
g65
(g26
S'\xd9\x0c\xfa\xdd8\x903@'
p1946
tp1947
Rp1948
ag65
(g26
S'\x8a\xff*\xfb\x1f\xfd<@'
p1949
tp1950
Rp1951
asg81
g16
(g17
(I0
tp1952
g19
tp1953
Rp1954
(I1
(I2
tp1955
g26
I00
S'\xfa[\xe5NL\x0fc@\x9fU>\x83(\xf4e@'
p1956
tp1957
bsg88
(lp1958
g65
(g26
S'\x84\xce}{A=.@'
p1959
tp1960
Rp1961
ag65
(g26
S'\xaa\xf8\xa7\xc4\xf3D4@'
p1962
tp1963
Rp1964
asbag1
(g11
g3
Ntp1965
Rp1966
(dp1967
g15
g16
(g17
(I0
tp1968
g19
tp1969
Rp1970
(I1
(I2
tp1971
g26
I00
S'\xa5\xb7\xde\xb4\xf9\xae\x82@\xce\xb9\xd2N\x0c\x9b8@'
p1972
tp1973
bsg31
(lp1974
g16
(g17
(I0
tp1975
g19
tp1976
Rp1977
(I1
(I2
tp1978
g26
I00
S'\xa5\xb7\xde\xb4\xf9\xae\x82@\xce\xb9\xd2N\x0c\x9b8@'
p1979
tp1980
basg63
(lp1981
g65
(g26
S'\xe0\x80K\xbc\x8dl3@'
p1982
tp1983
Rp1984
asg81
g16
(g17
(I0
tp1985
g19
tp1986
Rp1987
(I1
(I2
tp1988
g26
I00
S'\xa5\xb7\xde\xb4\xf9\xae\x82@\xbc\xf2Y\xe1\x8a\xc9-@'
p1989
tp1990
bsg88
(lp1991
g65
(g26
S'>\xdb\xfd\xf3\xd3w5@'
p1992
tp1993
Rp1994
asbag1
(g11
g3
Ntp1995
Rp1996
(dp1997
g15
g16
(g17
(I0
tp1998
g19
tp1999
Rp2000
(I1
(I2
tp2001
g26
I00
S'\xdeC\x16\xfcn\xf1U@\xad\x81\xc6\xb9z\x87t@'
p2002
tp2003
bsg31
(lp2004
g16
(g17
(I0
tp2005
g19
tp2006
Rp2007
(I1
(I2
tp2008
g26
I00
S'\xdeC\x16\xfcn\xf1U@\xad\x81\xc6\xb9z\x87t@'
p2009
tp2010
basg63
(lp2011
g65
(g26
S'\xc4]\xb7\xc01\r(@'
p2012
tp2013
Rp2014
asg81
g16
(g17
(I0
tp2015
g19
tp2016
Rp2017
(I1
(I2
tp2018
g26
I00
S"\xdeC\x16\xfcn\xf1U@6\xa4\xc3\xf2E't@"
p2019
tp2020
bsg88
(lp2021
g65
(g26
S'\x03)7T\xd8\xa69@'
p2022
tp2023
Rp2024
asbag1
(g11
g3
Ntp2025
Rp2026
(dp2027
g15
g16
(g17
(I0
tp2028
g19
tp2029
Rp2030
(I1
(I2
tp2031
g26
I00
S'\x93/\xbaJv\x8e_@\xe6G\x9c\x181=X@'
p2032
tp2033
bsg31
(lp2034
g16
(g17
(I0
tp2035
g19
tp2036
Rp2037
(I1
(I2
tp2038
g26
I00
S'\x93/\xbaJv\x8e_@\xe6G\x9c\x181=X@'
p2039
tp2040
basg63
(lp2041
g65
(g26
S'\xb3\x9d\x86\xc5\xffGB@'
p2042
tp2043
Rp2044
asg81
g16
(g17
(I0
tp2045
g19
tp2046
Rp2047
(I1
(I2
tp2048
g26
I00
S"\x93/\xbaJv\x8e_@y\xa0:'1\xabS@"
p2049
tp2050
bsg88
(lp2051
g65
(g26
S",_hT'\xd8,@"
p2052
tp2053
Rp2054
asbag1
(g11
g3
Ntp2055
Rp2056
(dp2057
g15
g16
(g17
(I0
tp2058
g19
tp2059
Rp2060
(I1
(I2
tp2061
g26
I00
S'Jk\xf5t\xee\xf0\x82@\xca\xdfTwg\xafP@'
p2062
tp2063
bsg31
(lp2064
g16
(g17
(I0
tp2065
g19
tp2066
Rp2067
(I1
(I2
tp2068
g26
I00
S'Jk\xf5t\xee\xf0\x82@\xca\xdfTwg\xafP@'
p2069
tp2070
basg63
(lp2071
g65
(g26
S'\x9e \xb5\x04L\x1dC@'
p2072
tp2073
Rp2074
asg81
g16
(g17
(I0
tp2075
g19
tp2076
Rp2077
(I1
(I2
tp2078
g26
I00
S'Jk\xf5t\xee\xf0\x82@E/O\xec(\xd0G@'
p2079
tp2080
bsg88
(lp2081
g65
(g26
S'\xd9\x9d\xf5\x88\x03\xb55@'
p2082
tp2083
Rp2084
asbag1
(g11
g3
Ntp2085
Rp2086
(dp2087
g15
g16
(g17
(I0
tp2088
g19
tp2089
Rp2090
(I1
(I2
tp2091
g26
I00
S'(\xe1ZE8;\x80@\xd6a\xfb\xe7*\x05f@'
p2092
tp2093
bsg31
(lp2094
g16
(g17
(I0
tp2095
g19
tp2096
Rp2097
(I1
(I2
tp2098
g26
I00
S'(\xe1ZE8;\x80@\xd6a\xfb\xe7*\x05f@'
p2099
tp2100
basg63
(lp2101
g65
(g26
S' 6\x06\x10\x93\xf3A@'
p2102
tp2103
Rp2104
asg81
g16
(g17
(I0
tp2105
g19
tp2106
Rp2107
(I1
(I2
tp2108
g26
I00
S'(\xe1ZE8;\x80@\x12\x9b\xfa\x85\xb8\xc6c@'
p2109
tp2110
bsg88
(lp2111
g65
(g26
S't\xcbTI\x8aR9@'
p2112
tp2113
Rp2114
asbag1
(g11
g3
Ntp2115
Rp2116
(dp2117
g15
g16
(g17
(I0
tp2118
g19
tp2119
Rp2120
(I1
(I2
tp2121
g26
I00
S'\xc32\xd1[#\x8c}@\xbf\xbds}\xf2Dt@'
p2122
tp2123
bsg31
(lp2124
g16
(g17
(I0
tp2125
g19
tp2126
Rp2127
(I1
(I2
tp2128
g26
I00
S'\xc32\xd1[#\x8c}@\xbf\xbds}\xf2Dt@'
p2129
tp2130
bag16
(g17
(I0
tp2131
g19
tp2132
Rp2133
(I1
(I2
tp2134
g26
I00
S'\x8c\xbe\xba\xaa\xffb|@Y5,^\xc6\x7fs@'
p2135
tp2136
bag16
(g17
(I0
tp2137
g19
tp2138
Rp2139
(I1
(I2
tp2140
g26
I00
S'\xcc\n\x07\xf3@\x0b}@\x8f\xe3\x8f0\x18\xb2t@'
p2141
tp2142
basg63
(lp2143
g65
(g26
S'/,\x9a\xe3@\xf61@'
p2144
tp2145
Rp2146
ag65
(g26
S'\xb9_+\xb8\x17\xe42@'
p2147
tp2148
Rp2149
ag65
(g26
S'\xe6t\xf9\n\x9b\xd04@'
p2150
tp2151
Rp2152
asg81
g16
(g17
(I0
tp2153
g19
tp2154
Rp2155
(I1
(I2
tp2156
g26
I00
S'\x8c\xbe\xba\xaa\xffb|@[\xdaj\xa0\xa5\xe8r@'
p2157
tp2158
bsg88
(lp2159
g65
(g26
S'\x1c\x0b&\xea\x8dh0@'
p2160
tp2161
Rp2162
ag65
(g26
S'=\xdc`\r\xd7\x82%@'
p2163
tp2164
Rp2165
ag65
(g26
S'/g\x15\x8b\xbag9@'
p2166
tp2167
Rp2168
asbasS'y_range'
p2169
(lp2170
I0
aI480
asbsI1
g1
(g2
g3
Ntp2171
Rp2172
(dp2173
g7
g8
sg9
(lp2174
g1
(g11
g3
Ntp2175
Rp2176
(dp2177
g15
g16
(g17
(I0
tp2178
g19
tp2179
Rp2180
(I1
(I2
tp2181
g26
I00
S'2&W\x8dI\xe4y@\x8d\xae\xba\xdb\x02\xbcd@'
p2182
tp2183
bsg31
(lp2184
g16
(g17
(I0
tp2185
g19
tp2186
Rp2187
(I1
(I2
tp2188
g26
I00
S'2&W\x8dI\xe4y@\x8d\xae\xba\xdb\x02\xbcd@'
p2189
tp2190
basg63
(lp2191
g65
(g26
S'\xd4\xaa\xe3\xe4RlD@'
p2192
tp2193
Rp2194
asg81
g16
(g17
(I0
tp2195
g19
tp2196
Rp2197
(I1
(I2
tp2198
g26
I00
S'2&W\x8dI\xe4y@29\x1e\x7fx.b@'
p2199
tp2200
bsg88
(lp2201
g65
(g26
S'\xf5\t\xd7\xf2\x86\xc96@'
p2202
tp2203
Rp2204
asbag1
(g11
g3
Ntp2205
Rp2206
(dp2207
g15
g16
(g17
(I0
tp2208
g19
tp2209
Rp2210
(I1
(I2
tp2211
g26
I00
S'\x9e\xef\xe5y\xf1\x07z@\xf1\x8b^\xe3\xde?t@'
p2212
tp2213
bsg31
(lp2214
g16
(g17
(I0
tp2215
g19
tp2216
Rp2217
(I1
(I2
tp2218
g26
I00
S'\x9e\xef\xe5y\xf1\x07z@\xf1\x8b^\xe3\xde?t@'
p2219
tp2220
basg63
(lp2221
g65
(g26
S'\xc7\xd9\xf6\n\x94\x8cH@'
p2222
tp2223
Rp2224
asg81
g16
(g17
(I0
tp2225
g19
tp2226
Rp2227
(I1
(I2
tp2228
g26
I00
S'\x9e\xef\xe5y\xf1\x07z@U\x1e\xaf\xa2\x15\xb7r@'
p2229
tp2230
bsg88
(lp2231
g65
(g26
S'J\xe4\xb8q\xefx,@'
p2232
tp2233
Rp2234
asbag1
(g11
g3
Ntp2235
Rp2236
(dp2237
g15
g16
(g17
(I0
tp2238
g19
tp2239
Rp2240
(I1
(I2
tp2241
g26
I00
S'\x7fq\x96 \xb8\xb0R@\xe6\xd5\xf5\xed\xa2QA@'
p2242
tp2243
bsg31
(lp2244
g16
(g17
(I0
tp2245
g19
tp2246
Rp2247
(I1
(I2
tp2248
g26
I00
S'\x7fq\x96 \xb8\xb0R@\xe6\xd5\xf5\xed\xa2QA@'
p2249
tp2250
basg63
(lp2251
g65
(g26
S'\x1d\xb7\xf3\xceg\xc6D@'
p2252
tp2253
Rp2254
asg81
g16
(g17
(I0
tp2255
g19
tp2256
Rp2257
(I1
(I2
tp2258
g26
I00
S'\x7fq\x96 \xb8\xb0R@^\xe9\xef\x19\xbc\xb9+@'
p2259
tp2260
bsg88
(lp2261
g65
(g26
S";\xbe\xb9^\xf5,'@"
p2262
tp2263
Rp2264
asbag1
(g11
g3
Ntp2265
Rp2266
(dp2267
g15
g16
(g17
(I0
tp2268
g19
tp2269
Rp2270
(I1
(I2
tp2271
g26
I00
S'Ak\xc3}q\xba\x83@%\xd0<\xaf\x0c\xdce@'
p2272
tp2273
bsg31
(lp2274
g16
(g17
(I0
tp2275
g19
tp2276
Rp2277
(I1
(I2
tp2278
g26
I00
S'Ak\xc3}q\xba\x83@%\xd0<\xaf\x0c\xdce@'
p2279
tp2280
basg63
(lp2281
g65
(g26
S'k\x17a\x895\xd1H@'
p2282
tp2283
Rp2284
asg81
g16
(g17
(I0
tp2285
g19
tp2286
Rp2287
(I1
(I2
tp2288
g26
I00
S'Ak\xc3}q\xba\x83@8\xad\x10\xfe\xe5\xc1b@'
p2289
tp2290
bsg88
(lp2291
g65
(g26
S'SH\xeeGs\xef6@'
p2292
tp2293
Rp2294
asbag1
(g11
g3
Ntp2295
Rp2296
(dp2297
g15
g16
(g17
(I0
tp2298
g19
tp2299
Rp2300
(I1
(I2
tp2301
g26
I00
S'\x92\xa0\xaeb\x86I\x80@O\xa1\xed\xc8\x92Am@'
p2302
tp2303
bsg31
(lp2304
g16
(g17
(I0
tp2305
g19
tp2306
Rp2307
(I1
(I2
tp2308
g26
I00
S'\x92\xa0\xaeb\x86I\x80@O\xa1\xed\xc8\x92Am@'
p2309
tp2310
bag16
(g17
(I0
tp2311
g19
tp2312
Rp2313
(I1
(I2
tp2314
g26
I00
S'\xb5\x00\xf9\xeaN\xed\x7f@/\xbe@\xf9Pli@'
p2315
tp2316
basg63
(lp2317
g65
(g26
S'\xf6^=\xba\xe8a:@'
p2318
tp2319
Rp2320
ag65
(g26
S'\x87\xb3H\x04\xb9RB@'
p2321
tp2322
Rp2323
asg81
g16
(g17
(I0
tp2324
g19
tp2325
Rp2326
(I1
(I2
tp2327
g26
I00
S'\xb5\x00\xf9\xeaN\xed\x7f@\xbe\xa7\xb7\xd8\xf9!g@'
p2328
tp2329
bsg88
(lp2330
g65
(g26
S'\xbb\xabN\xda\xf5\x014@'
p2331
tp2332
Rp2333
ag65
(g26
S'k1R\xea7_=@'
p2334
tp2335
Rp2336
asbag1
(g11
g3
Ntp2337
Rp2338
(dp2339
g15
g16
(g17
(I0
tp2340
g19
tp2341
Rp2342
(I1
(I2
tp2343
g26
I00
S"\x84'1\xfag\xb0s@>rU\x82\x9c\x14}@"
p2344
tp2345
bsg31
(lp2346
g16
(g17
(I0
tp2347
g19
tp2348
Rp2349
(I1
(I2
tp2350
g26
I00
S"\x84'1\xfag\xb0s@>rU\x82\x9c\x14}@"
p2351
tp2352
basg63
(lp2353
g65
(g26
S'\x90\x99\xa1\x93\xf4\xba.@'
p2354
tp2355
Rp2356
asg81
g16
(g17
(I0
tp2357
g19
tp2358
Rp2359
(I1
(I2
tp2360
g26
I00
S"\x84'1\xfag\xb0s@\xd8\xeb\x06\xb0\xb0\x99|@"
p2361
tp2362
bsg88
(lp2363
g65
(g26
S'\x9dNX\xc0DD)@'
p2364
tp2365
Rp2366
asbag1
(g11
g3
Ntp2367
Rp2368
(dp2369
g15
g16
(g17
(I0
tp2370
g19
tp2371
Rp2372
(I1
(I2
tp2373
g26
I00
S'@\xb4\xbes&\x93\x82@G$E{KtP@'
p2374
tp2375
bsg31
(lp2376
g16
(g17
(I0
tp2377
g19
tp2378
Rp2379
(I1
(I2
tp2380
g26
I00
S'@\xb4\xbes&\x93\x82@G$E{KtP@'
p2381
tp2382
bag16
(g17
(I0
tp2383
g19
tp2384
Rp2385
(I1
(I2
tp2386
g26
I00
S'\x82\x87\xdf\xff5U\x82@f|_\x91N\xf1Y@'
p2387
tp2388
bag16
(g17
(I0
tp2389
g19
tp2390
Rp2391
(I1
(I2
tp2392
g26
I00
S'\xa0\xd3\x97\xc8\x98\x1f\x82@\xdb\xd1%,T<F@'
p2393
tp2394
bag16
(g17
(I0
tp2395
g19
tp2396
Rp2397
(I1
(I2
tp2398
g26
I00
S'\xcdZ\xf8N\xb0c\x82@#\x0f\xf6\xdf\x14\x0b4@'
p2399
tp2400
bag16
(g17
(I0
tp2401
g19
tp2402
Rp2403
(I1
(I2
tp2404
g26
I00
S'&S\xa4e\xb8Y\x82@eo\xe0\xb8>+`@'
p2405
tp2406
basg63
(lp2407
g65
(g26
S'\x970\xc8(\xea&C@'
p2408
tp2409
Rp2410
ag65
(g26
S'`\xbe\x81\xe4\xe8\xe6G@'
p2411
tp2412
Rp2413
ag65
(g26
S'/\xaa{\xc9\xe5FH@'
p2414
tp2415
Rp2416
ag65
(g26
S'p\x04N\xb50\xd2A@'
p2417
tp2418
Rp2419
ag65
(g26
S'\xa5\x8d\xcb/\xc0\x02@@'
p2420
tp2421
Rp2422
asg81
g16
(g17
(I0
tp2423
g19
tp2424
Rp2425
(I1
(I2
tp2426
g26
I00
S'\xcdZ\xf8N\xb0c\x82@\x98U@U!\xc7\x01@'
p2427
tp2428
bsg88
(lp2429
g65
(g26
S'\xf9\x9eH:\xf8\x92(@'
p2430
tp2431
Rp2432
ag65
(g26
S'\xc0\xfdZ)\x80J0@'
p2433
tp2434
Rp2435
ag65
(g26
S'\x04\xed\x1a\xa4\x08<0@'
p2436
tp2437
Rp2438
ag65
(g26
S'\xb4R\xdd\xe3D$8@'
p2439
tp2440
Rp2441
ag65
(g26
S',b\xabO\xae\x9f9@'
p2442
tp2443
Rp2444
asbag1
(g11
g3
Ntp2445
Rp2446
(dp2447
g15
g16
(g17
(I0
tp2448
g19
tp2449
Rp2450
(I1
(I2
tp2451
g26
I00
S'\xdeB3X(\x88d@\xbbW\xd9(\xfd{g@'
p2452
tp2453
bsg31
(lp2454
g16
(g17
(I0
tp2455
g19
tp2456
Rp2457
(I1
(I2
tp2458
g26
I00
S'\xdeB3X(\x88d@\xbbW\xd9(\xfd{g@'
p2459
tp2460
basg63
(lp2461
g65
(g26
S'$\x97o\xc0g\xb11@'
p2462
tp2463
Rp2464
asg81
g16
(g17
(I0
tp2465
g19
tp2466
Rp2467
(I1
(I2
tp2468
g26
I00
S'\xdeB3X(\x88d@I^\xd2\xac\xe6`f@'
p2469
tp2470
bsg88
(lp2471
g65
(g26
S'^\x17o\xad\xad}-@'
p2472
tp2473
Rp2474
asbag1
(g11
g3
Ntp2475
Rp2476
(dp2477
g15
g16
(g17
(I0
tp2478
g19
tp2479
Rp2480
(I1
(I2
tp2481
g26
I00
S'\xc7Nx9\x9e\x00g@\xcd\xeb\xf2\xd5\xa5\xf3c@'
p2482
tp2483
bsg31
(lp2484
g16
(g17
(I0
tp2485
g19
tp2486
Rp2487
(I1
(I2
tp2488
g26
I00
S'\xc7Nx9\x9e\x00g@\xcd\xeb\xf2\xd5\xa5\xf3c@'
p2489
tp2490
bag16
(g17
(I0
tp2491
g19
tp2492
Rp2493
(I1
(I2
tp2494
g26
I00
S'T\x11\x0c\x88p\xaeg@\xa3\x14\xf4\xafs\xeed@'
p2495
tp2496
basg63
(lp2497
g65
(g26
S'\xc7\xa7\x91e;!9@'
p2498
tp2499
Rp2500
ag65
(g26
S'\xc6Q\xb63\xcb\x035@'
p2501
tp2502
Rp2503
asg81
g16
(g17
(I0
tp2504
g19
tp2505
Rp2506
(I1
(I2
tp2507
g26
I00
S'\xc7Nx9\x9e\x00g@Q\xd1\x99\x1f\x92ab@'
p2508
tp2509
bsg88
(lp2510
g65
(g26
S'\x8e\xac\xf66\n\x997@'
p2511
tp2512
Rp2513
ag65
(g26
S'\x14a\xa6\x97\x18\xe7=@'
p2514
tp2515
Rp2516
asbag1
(g11
g3
Ntp2517
Rp2518
(dp2519
g15
g16
(g17
(I0
tp2520
g19
tp2521
Rp2522
(I1
(I2
tp2523
g26
I00
S'\x14|\x94\xe9\n\xb4{@\xe2\xcd\xb7\x9ca\xafr@'
p2524
tp2525
bsg31
(lp2526
g16
(g17
(I0
tp2527
g19
tp2528
Rp2529
(I1
(I2
tp2530
g26
I00
S'\x14|\x94\xe9\n\xb4{@\xe2\xcd\xb7\x9ca\xafr@'
p2531
tp2532
bag16
(g17
(I0
tp2533
g19
tp2534
Rp2535
(I1
(I2
tp2536
g26
I00
S'\xadsq\xe3\xe5\x10|@<\xdfd\x92\x7f\xbcs@'
p2537
tp2538
bag16
(g17
(I0
tp2539
g19
tp2540
Rp2541
(I1
(I2
tp2542
g26
I00
S'\xf2\x82\x08\x1d\x06\x9b{@\xb8\xb7s\xe3\x1b\xf7u@'
p2543
tp2544
bag16
(g17
(I0
tp2545
g19
tp2546
Rp2547
(I1
(I2
tp2548
g26
I00
S"\xf6\xdea''c{@5f<\xa8\x9c_r@"
p2549
tp2550
basg63
(lp2551
g65
(g26
S'o\x03\xcb\x0ez;,@'
p2552
tp2553
Rp2554
ag65
(g26
S'\xcd\x8b\xae\xd3\xad\xcaH@'
p2555
tp2556
Rp2557
ag65
(g26
S'P\xfdA\x93r\xc1?@'
p2558
tp2559
Rp2560
ag65
(g26
S'\xc7\x1e\x97\xa4\x02\xfc;@'
p2561
tp2562
Rp2563
asg81
g16
(g17
(I0
tp2564
g19
tp2565
Rp2566
(I1
(I2
tp2567
g26
I00
S"\xf6\xdea''c{@?\xad\x17\x93\xbc\x7fq@"
p2568
tp2569
bsg88
(lp2570
g65
(g26
S'\xcf9\xf22%S9@'
p2571
tp2572
Rp2573
ag65
(g26
S'j\n\x0f\xbf\xf4\xbe4@'
p2574
tp2575
Rp2576
ag65
(g26
S'\x18H\xce\xdf\xc8\xac2@'
p2577
tp2578
Rp2579
ag65
(g26
S'\xcb\x93\xd8\xf4\xcd\xd01@'
p2580
tp2581
Rp2582
asbag1
(g11
g3
Ntp2583
Rp2584
(dp2585
g15
g16
(g17
(I0
tp2586
g19
tp2587
Rp2588
(I1
(I2
tp2589
g26
I00
S'\x9c5\xcb\r\x19\xfbw@(\x8d\xb1 \x8d?v@'
p2590
tp2591
bsg31
(lp2592
g16
(g17
(I0
tp2593
g19
tp2594
Rp2595
(I1
(I2
tp2596
g26
I00
S'\x9c5\xcb\r\x19\xfbw@(\x8d\xb1 \x8d?v@'
p2597
tp2598
bag16
(g17
(I0
tp2599
g19
tp2600
Rp2601
(I1
(I2
tp2602
g26
I00
S'\xc5K\xc05\xdb\x91w@1\x80J\xbeS\x1eu@'
p2603
tp2604
basg63
(lp2605
g65
(g26
S'\xe8\x89\xdf\x00\x9a\xa0C@'
p2606
tp2607
Rp2608
ag65
(g26
S'!\xfd\x0fT\x8b\xbf4@'
p2609
tp2610
Rp2611
asg81
g16
(g17
(I0
tp2612
g19
tp2613
Rp2614
(I1
(I2
tp2615
g26
I00
S'\xc5K\xc05\xdb\x91w@H\x00\xaacWxt@'
p2616
tp2617
bsg88
(lp2618
g65
(g26
S'\x9a\xca\xd0\xf9\x9b{:@'
p2619
tp2620
Rp2621
ag65
(g26
S'\x8d\xca\xd0\xf6\xdf--@'
p2622
tp2623
Rp2624
asbag1
(g11
g3
Ntp2625
Rp2626
(dp2627
g15
g16
(g17
(I0
tp2628
g19
tp2629
Rp2630
(I1
(I2
tp2631
g26
I00
S'\xd23\xa8\xb3D\x00\x7f@\xd0K\xdeg@fu@'
p2632
tp2633
bsg31
(lp2634
g16
(g17
(I0
tp2635
g19
tp2636
Rp2637
(I1
(I2
tp2638
g26
I00
S'\xd23\xa8\xb3D\x00\x7f@\xd0K\xdeg@fu@'
p2639
tp2640
basg63
(lp2641
g65
(g26
S'\xc4-\x97\x1e?\xccF@'
p2642
tp2643
Rp2644
asg81
g16
(g17
(I0
tp2645
g19
tp2646
Rp2647
(I1
(I2
tp2648
g26
I00
S'\xd23\xa8\xb3D\x00\x7f@\xf4\xd8\xf4u|\xf9s@'
p2649
tp2650
bsg88
(lp2651
g65
(g26
S'\xc7&3\xe0\x14)/@'
p2652
tp2653
Rp2654
asbag1
(g11
g3
Ntp2655
Rp2656
(dp2657
g15
g16
(g17
(I0
tp2658
g19
tp2659
Rp2660
(I1
(I2
tp2661
g26
I00
S'\xc5\xa2WI\x96hz@9(\x91U{\x13Z@'
p2662
tp2663
bsg31
(lp2664
g16
(g17
(I0
tp2665
g19
tp2666
Rp2667
(I1
(I2
tp2668
g26
I00
S'\xc5\xa2WI\x96hz@9(\x91U{\x13Z@'
p2669
tp2670
basg63
(lp2671
g65
(g26
S'~N@\x08\xb9\x9f=@'
p2672
tp2673
Rp2674
asg81
g16
(g17
(I0
tp2675
g19
tp2676
Rp2677
(I1
(I2
tp2678
g26
I00
S'\xc5\xa2WI\x96hz@i\x1e\x894\x84_V@'
p2679
tp2680
bsg88
(lp2681
g65
(g26
S'\xb4\xb4\xb3:&E;@'
p2682
tp2683
Rp2684
asbag1
(g11
g3
Ntp2685
Rp2686
(dp2687
g15
g16
(g17
(I0
tp2688
g19
tp2689
Rp2690
(I1
(I2
tp2691
g26
I00
S'\x8c\x80\x0f\x80P\xb0e@.\xf4t q\xdf{@'
p2692
tp2693
bsg31
(lp2694
g16
(g17
(I0
tp2695
g19
tp2696
Rp2697
(I1
(I2
tp2698
g26
I00
S'\x8c\x80\x0f\x80P\xb0e@.\xf4t q\xdf{@'
p2699
tp2700
basg63
(lp2701
g65
(g26
S'UkI\t\x190@@'
p2702
tp2703
Rp2704
asg81
g16
(g17
(I0
tp2705
g19
tp2706
Rp2707
(I1
(I2
tp2708
g26
I00
S'\x8c\x80\x0f\x80P\xb0e@y]\xe0\x8fo\xdcz@'
p2709
tp2710
bsg88
(lp2711
g65
(g26
S'A\x05/\xca\x8b\x0c0@'
p2712
tp2713
Rp2714
asbag1
(g11
g3
Ntp2715
Rp2716
(dp2717
g15
g16
(g17
(I0
tp2718
g19
tp2719
Rp2720
(I1
(I2
tp2721
g26
I00
S'8\x95\xf0\xe2\xe1\x99*@EU\xa5AU\x8cQ@'
p2722
tp2723
bsg31
(lp2724
g16
(g17
(I0
tp2725
g19
tp2726
Rp2727
(I1
(I2
tp2728
g26
I00
S'8\x95\xf0\xe2\xe1\x99*@EU\xa5AU\x8cQ@'
p2729
tp2730
basg63
(lp2731
g65
(g26
S'\xde\xa8\xb6\xabc\xb2F@'
p2732
tp2733
Rp2734
asg81
g16
(g17
(I0
tp2735
g19
tp2736
Rp2737
(I1
(I2
tp2738
g26
I00
S'8\x95\xf0\xe2\xe1\x99*@\x1bVo\xadx\xbfG@'
p2739
tp2740
bsg88
(lp2741
g65
(g26
S'\xcf\xad\xe6I\x1d\xcb7@'
p2742
tp2743
Rp2744
asbag1
(g11
g3
Ntp2745
Rp2746
(dp2747
g15
g16
(g17
(I0
tp2748
g19
tp2749
Rp2750
(I1
(I2
tp2751
g26
I00
S'\xc6r\xcc\xf8\xa2y\x81@\x1cx\x8fx\xbd\xf5\x19@'
p2752
tp2753
bsg31
(lp2754
g16
(g17
(I0
tp2755
g19
tp2756
Rp2757
(I1
(I2
tp2758
g26
I00
S'\xc6r\xcc\xf8\xa2y\x81@\x1cx\x8fx\xbd\xf5\x19@'
p2759
tp2760
basg63
(lp2761
g65
(g26
S'\xb9:\t`l.C@'
p2762
tp2763
Rp2764
asg81
g16
(g17
(I0
tp2765
g19
tp2766
Rp2767
(I1
(I2
tp2768
g26
I00
S'\xc6r\xcc\xf8\xa2y\x81@d\xb9\xca\x03\xfaa)\xc0'
p2769
tp2770
bsg88
(lp2771
g65
(g26
S'\xdd\xed4R\xdd\x088@'
p2772
tp2773
Rp2774
asbag1
(g11
g3
Ntp2775
Rp2776
(dp2777
g15
g16
(g17
(I0
tp2778
g19
tp2779
Rp2780
(I1
(I2
tp2781
g26
I00
S'HH\x06X\x1b\xa1]@\xb0H,S\x8a\xa7q@'
p2782
tp2783
bsg31
(lp2784
g16
(g17
(I0
tp2785
g19
tp2786
Rp2787
(I1
(I2
tp2788
g26
I00
S'HH\x06X\x1b\xa1]@\xb0H,S\x8a\xa7q@'
p2789
tp2790
bag16
(g17
(I0
tp2791
g19
tp2792
Rp2793
(I1
(I2
tp2794
g26
I00
S'\x92\xe1\x98\x03\x17\xdb[@\xf8\x9f,\x9bxeq@'
p2795
tp2796
basg63
(lp2797
g65
(g26
S'<\xce\xfdh\xee\xc2B@'
p2798
tp2799
Rp2800
ag65
(g26
S'\x16\xce\x1c\x154P*@'
p2801
tp2802
Rp2803
asg81
g16
(g17
(I0
tp2804
g19
tp2805
Rp2806
(I1
(I2
tp2807
g26
I00
S'HH\x06X\x1b\xa1]@\xcck\x9cl[{p@'
p2808
tp2809
bsg88
(lp2810
g65
(g26
S'\x14h+#\x9d\x041@'
p2811
tp2812
Rp2813
ag65
(g26
S"#\x94\x92\xf3\x0b@'@"
p2814
tp2815
Rp2816
asbag1
(g11
g3
Ntp2817
Rp2818
(dp2819
g15
g16
(g17
(I0
tp2820
g19
tp2821
Rp2822
(I1
(I2
tp2823
g26
I00
S'\x00\x8e\xf4\xc1\xe0\xab\xf0?g\xc2\xe8]b\xbbg@'
p2824
tp2825
bsg31
(lp2826
g16
(g17
(I0
tp2827
g19
tp2828
Rp2829
(I1
(I2
tp2830
g26
I00
S'\x00\x8e\xf4\xc1\xe0\xab\xf0?g\xc2\xe8]b\xbbg@'
p2831
tp2832
basg63
(lp2833
g65
(g26
S'<\x04\n\x02\x8fK6@'
p2834
tp2835
Rp2836
asg81
g16
(g17
(I0
tp2837
g19
tp2838
Rp2839
(I1
(I2
tp2840
g26
I00
S'\x00\x8e\xf4\xc1\xe0\xab\xf0?#"\xc8m\xa9Vf@'
p2841
tp2842
bsg88
(lp2843
g65
(g26
S'cli\xd8\xfb\x9c)@'
p2844
tp2845
Rp2846
asbag1
(g11
g3
Ntp2847
Rp2848
(dp2849
g15
g16
(g17
(I0
tp2850
g19
tp2851
Rp2852
(I1
(I2
tp2853
g26
I00
S'+\r\xd8\xfal<t@\x99\x0e;\xedR\xf4v@'
p2854
tp2855
bsg31
(lp2856
g16
(g17
(I0
tp2857
g19
tp2858
Rp2859
(I1
(I2
tp2860
g26
I00
S'+\r\xd8\xfal<t@\x99\x0e;\xedR\xf4v@'
p2861
tp2862
basg63
(lp2863
g65
(g26
S'\\\x06\xba\xd4\xca+-@'
p2864
tp2865
Rp2866
asg81
g16
(g17
(I0
tp2867
g19
tp2868
Rp2869
(I1
(I2
tp2870
g26
I00
S'+\r\xd8\xfal<t@\x80&\xe8\xc1\xa3\x7fv@'
p2871
tp2872
bsg88
(lp2873
g65
(g26
S'\xb6Ao\\a\xb86@'
p2874
tp2875
Rp2876
asbag1
(g11
g3
Ntp2877
Rp2878
(dp2879
g15
g16
(g17
(I0
tp2880
g19
tp2881
Rp2882
(I1
(I2
tp2883
g26
I00
S'\xf0U\xbez\xcc\xfbd@\xfc\x03\n\xf8 uu@'
p2884
tp2885
bsg31
(lp2886
g16
(g17
(I0
tp2887
g19
tp2888
Rp2889
(I1
(I2
tp2890
g26
I00
S'\xf0U\xbez\xcc\xfbd@\xfc\x03\n\xf8 uu@'
p2891
tp2892
bag16
(g17
(I0
tp2893
g19
tp2894
Rp2895
(I1
(I2
tp2896
g26
I00
S':E\xeb\xc0\xdf\x82g@\xc6\xba\x81\xb7weu@'
p2897
tp2898
bag16
(g17
(I0
tp2899
g19
tp2900
Rp2901
(I1
(I2
tp2902
g26
I00
S'\x12\x98`\xa6\x0c)g@\xda\x06\xa0\xd8l%u@'
p2903
tp2904
bag16
(g17
(I0
tp2905
g19
tp2906
Rp2907
(I1
(I2
tp2908
g26
I00
S'B\x15\xd8\xcc\xdd5h@g=s\xd1+\ru@'
p2909
tp2910
basg63
(lp2911
g65
(g26
S'f\x0ft\xff\x91\x95H@'
p2912
tp2913
Rp2914
ag65
(g26
S'\xc7m\xb6~fT<@'
p2915
tp2916
Rp2917
ag65
(g26
S',\x8c\xb9\xc7.\xfcH@'
p2918
tp2919
Rp2920
ag65
(g26
S'\x06\x98qxX\xd05@'
p2921
tp2922
Rp2923
asg81
g16
(g17
(I0
tp2924
g19
tp2925
Rp2926
(I1
(I2
tp2927
g26
I00
S'\x12\x98`\xa6\x0c)g@\x17n$\xec\xa9\x95s@'
p2928
tp2929
bsg88
(lp2930
g65
(g26
S'LP\x90\x98q\xc41@'
p2931
tp2932
Rp2933
ag65
(g26
S'\xc0\xa8\xc2\xe4\xcf\x91%@'
p2934
tp2935
Rp2936
ag65
(g26
S'\x88c\xf5B\xec\x1b5@'
p2937
tp2938
Rp2939
ag65
(g26
S'\x04\xd0xl\x85\xf66@'
p2940
tp2941
Rp2942
asbag1
(g11
g3
Ntp2943
Rp2944
(dp2945
g15
g16
(g17
(I0
tp2946
g19
tp2947
Rp2948
(I1
(I2
tp2949
g26
I00
S'\xe1\xd2\xd9\xa1\x91R\x82@\x7f?\xb9>v\x8fz@'
p2950
tp2951
bsg31
(lp2952
g16
(g17
(I0
tp2953
g19
tp2954
Rp2955
(I1
(I2
tp2956
g26
I00
S'\xe1\xd2\xd9\xa1\x91R\x82@\x7f?\xb9>v\x8fz@'
p2957
tp2958
bag16
(g17
(I0
tp2959
g19
tp2960
Rp2961
(I1
(I2
tp2962
g26
I00
S'\xf5\x1b\xd2st\n\x82@\x1dp\xaa"M\xc5x@'
p2963
tp2964
basg63
(lp2965
g65
(g26
S'\x87\xdc\x87\x1d?.E@'
p2966
tp2967
Rp2968
ag65
(g26
S'\x9b%\xdfI\xd4\x93;@'
p2969
tp2970
Rp2971
asg81
g16
(g17
(I0
tp2972
g19
tp2973
Rp2974
(I1
(I2
tp2975
g26
I00
S'\xf5\x1b\xd2st\n\x82@\xf0v[\x80\xae\xe8w@'
p2976
tp2977
bsg88
(lp2978
g65
(g26
S'L<v\xcaQP&@'
p2979
tp2980
Rp2981
ag65
(g26
S'\x14\xd9\x89\xbc\x8cm;@'
p2982
tp2983
Rp2984
asbag1
(g11
g3
Ntp2985
Rp2986
(dp2987
g15
g16
(g17
(I0
tp2988
g19
tp2989
Rp2990
(I1
(I2
tp2991
g26
I00
S'\xf8m\xae\xe2wFp@\x1e\xdc\xe4\x17\x0b_s@'
p2992
tp2993
bsg31
(lp2994
g16
(g17
(I0
tp2995
g19
tp2996
Rp2997
(I1
(I2
tp2998
g26
I00
S'\xf8m\xae\xe2wFp@\x1e\xdc\xe4\x17\x0b_s@'
p2999
tp3000
bag16
(g17
(I0
tp3001
g19
tp3002
Rp3003
(I1
(I2
tp3004
g26
I00
S'\xc4\x01\x07\x16\x008o@\x83\xf3\x0fj\x94\x03t@'
p3005
tp3006
basg63
(lp3007
g65
(g26
S'/\x10i\xe8\xc0[D@'
p3008
tp3009
Rp3010
ag65
(g26
S'K\xa8l\xb6\x9e\xe91@'
p3011
tp3012
Rp3013
asg81
g16
(g17
(I0
tp3014
g19
tp3015
Rp3016
(I1
(I2
tp3017
g26
I00
S'\xf8m\xae\xe2wFp@\x1bK^\tO\x19r@'
p3018
tp3019
bsg88
(lp3020
g65
(g26
S'\x1c\xc4<\xeb\xf06;@'
p3021
tp3022
Rp3023
ag65
(g26
S'qr"\xf2\x1a=8@'
p3024
tp3025
Rp3026
asbag1
(g11
g3
Ntp3027
Rp3028
(dp3029
g15
g16
(g17
(I0
tp3030
g19
tp3031
Rp3032
(I1
(I2
tp3033
g26
I00
S'{K0\xa9 \x9fc@\x80\x92\xe7\x01\xe3[@@'
p3034
tp3035
bsg31
(lp3036
g16
(g17
(I0
tp3037
g19
tp3038
Rp3039
(I1
(I2
tp3040
g26
I00
S'{K0\xa9 \x9fc@\x80\x92\xe7\x01\xe3[@@'
p3041
tp3042
basg63
(lp3043
g65
(g26
S'\xc2\x15\xbe\xa5\xcb\xa05@'
p3044
tp3045
Rp3046
asg81
g16
(g17
(I0
tp3047
g19
tp3048
Rp3049
(I1
(I2
tp3050
g26
I00
S'{K0\xa9 \x9fc@\x1f\x1a\xf00`\xe75@'
p3051
tp3052
bsg88
(lp3053
g65
(g26
S'\x9d\x81B\xb9\x9a\x1a&@'
p3054
tp3055
Rp3056
asbag1
(g11
g3
Ntp3057
Rp3058
(dp3059
g15
g16
(g17
(I0
tp3060
g19
tp3061
Rp3062
(I1
(I2
tp3063
g26
I00
S'\xad\x10$\xe8\xa8\x91\x83@j\x0ec(e\rY@'
p3064
tp3065
bsg31
(lp3066
g16
(g17
(I0
tp3067
g19
tp3068
Rp3069
(I1
(I2
tp3070
g26
I00
S'\xad\x10$\xe8\xa8\x91\x83@j\x0ec(e\rY@'
p3071
tp3072
basg63
(lp3073
g65
(g26
S'\x07\x1b\xc2\xb2c G@'
p3074
tp3075
Rp3076
asg81
g16
(g17
(I0
tp3077
g19
tp3078
Rp3079
(I1
(I2
tp3080
g26
I00
S'\xad\x10$\xe8\xa8\x91\x83@\xa8\x87\xb2;LES@'
p3081
tp3082
bsg88
(lp3083
g65
(g26
S'\xa6,\x99|<\x8e.@'
p3084
tp3085
Rp3086
asbag1
(g11
g3
Ntp3087
Rp3088
(dp3089
g15
g16
(g17
(I0
tp3090
g19
tp3091
Rp3092
(I1
(I2
tp3093
g26
I00
S'\x1e<\x92\x19S\xa2v@\xd5\x15\x1fE\x9d c@'
p3094
tp3095
bsg31
(lp3096
g16
(g17
(I0
tp3097
g19
tp3098
Rp3099
(I1
(I2
tp3100
g26
I00
S'\x1e<\x92\x19S\xa2v@\xd5\x15\x1fE\x9d c@'
p3101
tp3102
bag16
(g17
(I0
tp3103
g19
tp3104
Rp3105
(I1
(I2
tp3106
g26
I00
S'\x13\xa8\xfam\x15\xd6w@\x86l\xaa\xbc.\x11d@'
p3107
tp3108
basg63
(lp3109
g65
(g26
S'\x0fkr\xba.\xf6*@'
p3110
tp3111
Rp3112
ag65
(g26
S'\xd2\x01\xee\xc6\xf9\x86A@'
p3113
tp3114
Rp3115
asg81
g16
(g17
(I0
tp3116
g19
tp3117
Rp3118
(I1
(I2
tp3119
g26
I00
S'\x13\xa8\xfam\x15\xd6w@L\xac\xcc\x83O\xe0a@'
p3120
tp3121
bsg88
(lp3122
g65
(g26
S'\x895\x8b\xc6\xd8f:@'
p3123
tp3124
Rp3125
ag65
(g26
S'\x03\x8aY\xc6q>6@'
p3126
tp3127
Rp3128
asbag1
(g11
g3
Ntp3129
Rp3130
(dp3131
g15
g16
(g17
(I0
tp3132
g19
tp3133
Rp3134
(I1
(I2
tp3135
g26
I00
S'S3m\xea\x08p\x82@\xd7Yptj\x96s@'
p3136
tp3137
bsg31
(lp3138
g16
(g17
(I0
tp3139
g19
tp3140
Rp3141
(I1
(I2
tp3142
g26
I00
S'S3m\xea\x08p\x82@\xd7Yptj\x96s@'
p3143
tp3144
bag16
(g17
(I0
tp3145
g19
tp3146
Rp3147
(I1
(I2
tp3148
g26
I00
S"\x96\x8a\xdd\xe5|K\x82@F'\x16S\xebGs@"
p3149
tp3150
basg63
(lp3151
g65
(g26
S'\xf5\x89\xcc\x13\xbc :@'
p3152
tp3153
Rp3154
ag65
(g26
S'\x8a\xf3\xba\xa3\x95X)@'
p3155
tp3156
Rp3157
asg81
g16
(g17
(I0
tp3158
g19
tp3159
Rp3160
(I1
(I2
tp3161
g26
I00
S'S3m\xea\x08p\x82@\x87\xf5\xd1\x93d\xc5r@'
p3162
tp3163
bsg88
(lp3164
g65
(g26
S'v\xe1\x1a\x9d|{/@'
p3165
tp3166
Rp3167
ag65
(g26
S'\r\xa0\xae\xe0\x13\x130@'
p3168
tp3169
Rp3170
asbag1
(g11
g3
Ntp3171
Rp3172
(dp3173
g15
g16
(g17
(I0
tp3174
g19
tp3175
Rp3176
(I1
(I2
tp3177
g26
I00
S'\xaf\xbc\x94\n\x11ux@\xf8\r\x80\xe0\xcc\xbaX@'
p3178
tp3179
bsg31
(lp3180
g16
(g17
(I0
tp3181
g19
tp3182
Rp3183
(I1
(I2
tp3184
g26
I00
S'\xaf\xbc\x94\n\x11ux@\xf8\r\x80\xe0\xcc\xbaX@'
p3185
tp3186
basg63
(lp3187
g65
(g26
S'H\x104\x90j\xdcH@'
p3188
tp3189
Rp3190
asg81
g16
(g17
(I0
tp3191
g19
tp3192
Rp3193
(I1
(I2
tp3194
g26
I00
S'\xaf\xbc\x94\n\x11ux@\xe6\ts<\xb2\x83R@'
p3195
tp3196
bsg88
(lp3197
g65
(g26
S'j[\x11<o\xbe.@'
p3198
tp3199
Rp3200
asbag1
(g11
g3
Ntp3201
Rp3202
(dp3203
g15
g16
(g17
(I0
tp3204
g19
tp3205
Rp3206
(I1
(I2
tp3207
g26
I00
S'\x8c\xa5\xca\xa6~\x9dy@h\xd7\xe9\xae\x84\x8cj@'
p3208
tp3209
bsg31
(lp3210
g16
(g17
(I0
tp3211
g19
tp3212
Rp3213
(I1
(I2
tp3214
g26
I00
S'\x8c\xa5\xca\xa6~\x9dy@h\xd7\xe9\xae\x84\x8cj@'
p3215
tp3216
basg63
(lp3217
g65
(g26
S'\xa1w\xf7\x9eA\xcc*@'
p3218
tp3219
Rp3220
asg81
g16
(g17
(I0
tp3221
g19
tp3222
Rp3223
(I1
(I2
tp3224
g26
I00
S'\x8c\xa5\xca\xa6~\x9dy@\xab\x1b\xf2\xa1"\xb6i@'
p3225
tp3226
bsg88
(lp3227
g65
(g26
S"\x82\x99Dm\x95'$@"
p3228
tp3229
Rp3230
asbag1
(g11
g3
Ntp3231
Rp3232
(dp3233
g15
g16
(g17
(I0
tp3234
g19
tp3235
Rp3236
(I1
(I2
tp3237
g26
I00
S'\xb5F\xd9\xe7\xddyy@\xdc\xbdr5\xd3\xb4y@'
p3238
tp3239
bsg31
(lp3240
g16
(g17
(I0
tp3241
g19
tp3242
Rp3243
(I1
(I2
tp3244
g26
I00
S'\xb5F\xd9\xe7\xddyy@\xdc\xbdr5\xd3\xb4y@'
p3245
tp3246
basg63
(lp3247
g65
(g26
S'\x9f\xfe&p\x0c\t%@'
p3248
tp3249
Rp3250
asg81
g16
(g17
(I0
tp3251
g19
tp3252
Rp3253
(I1
(I2
tp3254
g26
I00
S'\xb5F\xd9\xe7\xddyy@\xe2!\xb2\x03\xaf`y@'
p3255
tp3256
bsg88
(lp3257
g65
(g26
S'\x13\n\x94\xd1t\xa35@'
p3258
tp3259
Rp3260
asbag1
(g11
g3
Ntp3261
Rp3262
(dp3263
g15
g16
(g17
(I0
tp3264
g19
tp3265
Rp3266
(I1
(I2
tp3267
g26
I00
S'q\xac2^\xcbzo@\x80\xdc\xb9\xb0\x04\xfcU@'
p3268
tp3269
bsg31
(lp3270
g16
(g17
(I0
tp3271
g19
tp3272
Rp3273
(I1
(I2
tp3274
g26
I00
S'q\xac2^\xcbzo@\x80\xdc\xb9\xb0\x04\xfcU@'
p3275
tp3276
basg63
(lp3277
g65
(g26
S'\xa4\x19Ep1\xf6;@'
p3278
tp3279
Rp3280
asg81
g16
(g17
(I0
tp3281
g19
tp3282
Rp3283
(I1
(I2
tp3284
g26
I00
S'q\xac2^\xcbzo@L9\xb1\x82>}R@'
p3285
tp3286
bsg88
(lp3287
g65
(g26
S'\xb6\xff{\xbaU\xe48@'
p3288
tp3289
Rp3290
asbag1
(g11
g3
Ntp3291
Rp3292
(dp3293
g15
g16
(g17
(I0
tp3294
g19
tp3295
Rp3296
(I1
(I2
tp3297
g26
I00
S'\x98?\x05i\x17\xf4,@\xb7<Ij\xd9\x15s@'
p3298
tp3299
bsg31
(lp3300
g16
(g17
(I0
tp3301
g19
tp3302
Rp3303
(I1
(I2
tp3304
g26
I00
S'\x98?\x05i\x17\xf4,@\xb7<Ij\xd9\x15s@'
p3305
tp3306
basg63
(lp3307
g65
(g26
S'\x8b\x89\x9d)\x87sB@'
p3308
tp3309
Rp3310
asg81
g16
(g17
(I0
tp3311
g19
tp3312
Rp3313
(I1
(I2
tp3314
g26
I00
S'\x98?\x05i\x17\xf4,@\x1ed\xaf\xf7\xa0\xeeq@'
p3315
tp3316
bsg88
(lp3317
g65
(g26
S'V\x061\x12\xd2\x8b1@'
p3318
tp3319
Rp3320
asbag1
(g11
g3
Ntp3321
Rp3322
(dp3323
g15
g16
(g17
(I0
tp3324
g19
tp3325
Rp3326
(I1
(I2
tp3327
g26
I00
S'?\xe6\xa5\t\xdb9[@c5\xc1\x11\x87+h@'
p3328
tp3329
bsg31
(lp3330
g16
(g17
(I0
tp3331
g19
tp3332
Rp3333
(I1
(I2
tp3334
g26
I00
S'?\xe6\xa5\t\xdb9[@c5\xc1\x11\x87+h@'
p3335
tp3336
basg63
(lp3337
g65
(g26
S'\xce\xdf\xb6\xa5\\\xae2@'
p3338
tp3339
Rp3340
asg81
g16
(g17
(I0
tp3341
g19
tp3342
Rp3343
(I1
(I2
tp3344
g26
I00
S'?\xe6\xa5\t\xdb9[@f\xc7eG\xa1\x00g@'
p3345
tp3346
bsg88
(lp3347
g65
(g26
S'\x04\xd9\xde\xb85\x0f.@'
p3348
tp3349
Rp3350
asbag1
(g11
g3
Ntp3351
Rp3352
(dp3353
g15
g16
(g17
(I0
tp3354
g19
tp3355
Rp3356
(I1
(I2
tp3357
g26
I00
S' iJ\xffa\x81\x83@ j\xa1\x05\xbd\x1c|@'
p3358
tp3359
bsg31
(lp3360
g16
(g17
(I0
tp3361
g19
tp3362
Rp3363
(I1
(I2
tp3364
g26
I00
S' iJ\xffa\x81\x83@ j\xa1\x05\xbd\x1c|@'
p3365
tp3366
basg63
(lp3367
g65
(g26
S'\x8aO\xd8G\xad\xcdC@'
p3368
tp3369
Rp3370
asg81
g16
(g17
(I0
tp3371
g19
tp3372
Rp3373
(I1
(I2
tp3374
g26
I00
S" iJ\xffa\x81\x83@'\xe5#1\xe2\xdfz@"
p3375
tp3376
bsg88
(lp3377
g65
(g26
S'\x08\x84\xb7T\xbf\x1f7@'
p3378
tp3379
Rp3380
asbag1
(g11
g3
Ntp3381
Rp3382
(dp3383
g15
g16
(g17
(I0
tp3384
g19
tp3385
Rp3386
(I1
(I2
tp3387
g26
I00
S'\xe4\x1b]a\xec=L@L\t\xf5=\xaa\xf0j@'
p3388
tp3389
bsg31
(lp3390
g16
(g17
(I0
tp3391
g19
tp3392
Rp3393
(I1
(I2
tp3394
g26
I00
S'\xe4\x1b]a\xec=L@L\t\xf5=\xaa\xf0j@'
p3395
tp3396
basg63
(lp3397
g65
(g26
S'\xbe\r#\xed6(%@'
p3398
tp3399
Rp3400
asg81
g16
(g17
(I0
tp3401
g19
tp3402
Rp3403
(I1
(I2
tp3404
g26
I00
S'\xe4\x1b]a\xec=L@\xde\xf0\x8b\x86hGj@'
p3405
tp3406
bsg88
(lp3407
g65
(g26
S'Yn\xf3Ex=0@'
p3408
tp3409
Rp3410
asbag1
(g11
g3
Ntp3411
Rp3412
(dp3413
g15
g16
(g17
(I0
tp3414
g19
tp3415
Rp3416
(I1
(I2
tp3417
g26
I00
S'\xde\xa8FQGbk@\n\x92\xb1ay\x89Q@'
p3418
tp3419
bsg31
(lp3420
g16
(g17
(I0
tp3421
g19
tp3422
Rp3423
(I1
(I2
tp3424
g26
I00
S'\xde\xa8FQGbk@\n\x92\xb1ay\x89Q@'
p3425
tp3426
bag16
(g17
(I0
tp3427
g19
tp3428
Rp3429
(I1
(I2
tp3430
g26
I00
S'N\x14^>Y\xfdk@\x90\x88\x90\xf3\x87jF@'
p3431
tp3432
bag16
(g17
(I0
tp3433
g19
tp3434
Rp3435
(I1
(I2
tp3436
g26
I00
S'\x0e\xad"\x04\xab\x93k@$\xb3\x07\xbf\x9b\xb3I@'
p3437
tp3438
basg63
(lp3439
g65
(g26
S'\xec`\xe5K\x10\xe0?@'
p3440
tp3441
Rp3442
ag65
(g26
S'\xbd\xd8N=A\x7fA@'
p3443
tp3444
Rp3445
ag65
(g26
S'\xc2\xf0\t\xf6\x0b\xe6&@'
p3446
tp3447
Rp3448
asg81
g16
(g17
(I0
tp3449
g19
tp3450
Rp3451
(I1
(I2
tp3452
g26
I00
S'N\x14^>Y\xfdk@c8\xd2\xa9\xceU;@'
p3453
tp3454
bsg88
(lp3455
g65
(g26
S"~\x8f\xdc\xda\xf94'@"
p3456
tp3457
Rp3458
ag65
(g26
S'\xbby\x0f\x9f\x91\xcd3@'
p3459
tp3460
Rp3461
ag65
(g26
S'\xda\x9a\xf7\xc1\x9a\x94-@'
p3462
tp3463
Rp3464
asbag1
(g11
g3
Ntp3465
Rp3466
(dp3467
g15
g16
(g17
(I0
tp3468
g19
tp3469
Rp3470
(I1
(I2
tp3471
g26
I00
S'\x8eg~D\xd0\xf3r@\x00wP\xaa\x84\xfaV@'
p3472
tp3473
bsg31
(lp3474
g16
(g17
(I0
tp3475
g19
tp3476
Rp3477
(I1
(I2
tp3478
g26
I00
S'\x8eg~D\xd0\xf3r@\x00wP\xaa\x84\xfaV@'
p3479
tp3480
bag16
(g17
(I0
tp3481
g19
tp3482
Rp3483
(I1
(I2
tp3484
g26
I00
S'\x08\xbf\xef\xfcZ\xaer@~\xf9\xe141\xdeN@'
p3485
tp3486
basg63
(lp3487
g65
(g26
S'\x9d\x9f\x81\xf8\x96Y8@'
p3488
tp3489
Rp3490
ag65
(g26
S'\x93\xdb\xd3\xbbc\xf3C@'
p3491
tp3492
Rp3493
asg81
g16
(g17
(I0
tp3494
g19
tp3495
Rp3496
(I1
(I2
tp3497
g26
I00
S'\x08\xbf\xef\xfcZ\xaer@\xb4\x0b\xf8V\x7f\xe4D@'
p3498
tp3499
bsg88
(lp3500
g65
(g26
S'\xe2\x03\xfc\x06`\x8f5@'
p3501
tp3502
Rp3503
ag65
(g26
S'V\xcd\x94\x9b\r\xeb:@'
p3504
tp3505
Rp3506
asbag1
(g11
g3
Ntp3507
Rp3508
(dp3509
g15
g16
(g17
(I0
tp3510
g19
tp3511
Rp3512
(I1
(I2
tp3513
g26
I00
S"\xe2K4\xe7X\x83m@\n\xd2'\x8a'\x10|@"
p3514
tp3515
bsg31
(lp3516
g16
(g17
(I0
tp3517
g19
tp3518
Rp3519
(I1
(I2
tp3520
g26
I00
S"\xe2K4\xe7X\x83m@\n\xd2'\x8a'\x10|@"
p3521
tp3522
basg63
(lp3523
g65
(g26
S'p\xe9\xdfa\x05\x93?@'
p3524
tp3525
Rp3526
asg81
g16
(g17
(I0
tp3527
g19
tp3528
Rp3529
(I1
(I2
tp3530
g26
I00
S'\xe2K4\xe7X\x83m@\xbe\xd2\x18_\x8f\x13{@'
p3531
tp3532
bsg88
(lp3533
g65
(g26
S'\xe6\xb9\x89\xfa\x9fK)@'
p3534
tp3535
Rp3536
asbag1
(g11
g3
Ntp3537
Rp3538
(dp3539
g15
g16
(g17
(I0
tp3540
g19
tp3541
Rp3542
(I1
(I2
tp3543
g26
I00
S'T\xee\xb7Bg\xa0h@\xa0-\xf9\x8eea\xf0?'
p3544
tp3545
bsg31
(lp3546
g16
(g17
(I0
tp3547
g19
tp3548
Rp3549
(I1
(I2
tp3550
g26
I00
S'T\xee\xb7Bg\xa0h@\xa0-\xf9\x8eea\xf0?'
p3551
tp3552
basg63
(lp3553
g65
(g26
S'\xb4\x99\x87\xd8\xc9i$@'
p3554
tp3555
Rp3556
asg81
g16
(g17
(I0
tp3557
g19
tp3558
Rp3559
(I1
(I2
tp3560
g26
I00
S'T\xee\xb7Bg\xa0h@LN\xc9tpQ\x10\xc0'
p3561
tp3562
bsg88
(lp3563
g65
(g26
S'\xeaX~\x12l\x116@'
p3564
tp3565
Rp3566
asbag1
(g11
g3
Ntp3567
Rp3568
(dp3569
g15
g16
(g17
(I0
tp3570
g19
tp3571
Rp3572
(I1
(I2
tp3573
g26
I00
S'\xe45\xe7\xff\xdbx=@^\r\xa7\xa1lyj@'
p3574
tp3575
bsg31
(lp3576
g16
(g17
(I0
tp3577
g19
tp3578
Rp3579
(I1
(I2
tp3580
g26
I00
S'\xe45\xe7\xff\xdbx=@^\r\xa7\xa1lyj@'
p3581
tp3582
basg63
(lp3583
g65
(g26
S'|\x07\xb1`\xf0\xdfC@'
p3584
tp3585
Rp3586
asg81
g16
(g17
(I0
tp3587
g19
tp3588
Rp3589
(I1
(I2
tp3590
g26
I00
S'\xe45\xe7\xff\xdbx=@n\xec\x90\x95n\xfdg@'
p3591
tp3592
bsg88
(lp3593
g65
(g26
S'\xc26Z\x1b\xd3\xa3)@'
p3594
tp3595
Rp3596
asbag1
(g11
g3
Ntp3597
Rp3598
(dp3599
g15
g16
(g17
(I0
tp3600
g19
tp3601
Rp3602
(I1
(I2
tp3603
g26
I00
S'5u(\x7f\xf6\xacp@\xc2\xceX\xd2/T|@'
p3604
tp3605
bsg31
(lp3606
g16
(g17
(I0
tp3607
g19
tp3608
Rp3609
(I1
(I2
tp3610
g26
I00
S'5u(\x7f\xf6\xacp@\xc2\xceX\xd2/T|@'
p3611
tp3612
basg63
(lp3613
g65
(g26
S'\x1b\xec\xd7\xa9&\xef/@'
p3614
tp3615
Rp3616
asg81
g16
(g17
(I0
tp3617
g19
tp3618
Rp3619
(I1
(I2
tp3620
g26
I00
S'5u(\x7f\xf6\xacp@\x12o\xb17s\xd4{@'
p3621
tp3622
bsg88
(lp3623
g65
(g26
S'\xe3@(\x11\x1d16@'
p3624
tp3625
Rp3626
asbag1
(g11
g3
Ntp3627
Rp3628
(dp3629
g15
g16
(g17
(I0
tp3630
g19
tp3631
Rp3632
(I1
(I2
tp3633
g26
I00
S'\xa6\xf9\xcf#X\x03{@\x97\xcb\xa4B\xe7km@'
p3634
tp3635
bsg31
(lp3636
g16
(g17
(I0
tp3637
g19
tp3638
Rp3639
(I1
(I2
tp3640
g26
I00
S'\xa6\xf9\xcf#X\x03{@\x97\xcb\xa4B\xe7km@'
p3641
tp3642
basg63
(lp3643
g65
(g26
S'\xf4\x1b\xfd\\\xd9\x9eD@'
p3644
tp3645
Rp3646
asg81
g16
(g17
(I0
tp3647
g19
tp3648
Rp3649
(I1
(I2
tp3650
g26
I00
S'\xa6\xf9\xcf#X\x03{@\x18(\x05\x17\x0c\xd8j@'
p3651
tp3652
bsg88
(lp3653
g65
(g26
S'\xc8\x07\xce17U-@'
p3654
tp3655
Rp3656
asbag1
(g11
g3
Ntp3657
Rp3658
(dp3659
g15
g16
(g17
(I0
tp3660
g19
tp3661
Rp3662
(I1
(I2
tp3663
g26
I00
S'\xddc\x8bS%/\x80@\x1eq\xc7ZB@7@'
p3664
tp3665
bsg31
(lp3666
g16
(g17
(I0
tp3667
g19
tp3668
Rp3669
(I1
(I2
tp3670
g26
I00
S'\xddc\x8bS%/\x80@\x1eq\xc7ZB@7@'
p3671
tp3672
basg63
(lp3673
g65
(g26
S'Y\x0cR3\x91\xeb;@'
p3674
tp3675
Rp3676
asg81
g16
(g17
(I0
tp3677
g19
tp3678
Rp3679
(I1
(I2
tp3680
g26
I00
S'\xddc\x8bS%/\x80@\xe3\xd5<\x82\xf3\x94"@'
p3681
tp3682
bsg88
(lp3683
g65
(g26
S';\x05\xdc{\xb9\xf6<@'
p3684
tp3685
Rp3686
asbag1
(g11
g3
Ntp3687
Rp3688
(dp3689
g15
g16
(g17
(I0
tp3690
g19
tp3691
Rp3692
(I1
(I2
tp3693
g26
I00
S'\\\t\x023\xa8\xa9s@\x89kaP==o@'
p3694
tp3695
bsg31
(lp3696
g16
(g17
(I0
tp3697
g19
tp3698
Rp3699
(I1
(I2
tp3700
g26
I00
S'\\\t\x023\xa8\xa9s@\x89kaP==o@'
p3701
tp3702
bag16
(g17
(I0
tp3703
g19
tp3704
Rp3705
(I1
(I2
tp3706
g26
I00
S'\x9a}\xda\x14-\xc2t@\x8dx\x11\xdf\xc0|q@'
p3707
tp3708
bag16
(g17
(I0
tp3709
g19
tp3710
Rp3711
(I1
(I2
tp3712
g26
I00
S"\x1e\x9a%R>\xd8t@\xe6\xea'\xe7\x82}q@"
p3713
tp3714
bag16
(g17
(I0
tp3715
g19
tp3716
Rp3717
(I1
(I2
tp3718
g26
I00
S'56\xdap\x82\xfes@-\xdeJdw\x8br@'
p3719
tp3720
basg63
(lp3721
g65
(g26
S'\xb7*\x04\x93\xcf\x86F@'
p3722
tp3723
Rp3724
ag65
(g26
S'\xf3\xce\x10\x14.\xe3H@'
p3725
tp3726
Rp3727
ag65
(g26
S'[\x9e\x88\x18\xf8\x7fF@'
p3728
tp3729
Rp3730
ag65
(g26
S'1\x8b;\xaap\xad2@'
p3731
tp3732
Rp3733
asg81
g16
(g17
(I0
tp3734
g19
tp3735
Rp3736
(I1
(I2
tp3737
g26
I00
S'\\\t\x023\xa8\xa9s@2\xe6\x00^cll@'
p3738
tp3739
bsg88
(lp3740
g65
(g26
S'\xc2(@\xa5Z\xe11@'
p3741
tp3742
Rp3743
ag65
(g26
S'\xee\x0f\xc7\xf6\xbf\x172@'
p3744
tp3745
Rp3746
ag65
(g26
S'\xef^\xe2ll"0@'
p3747
tp3748
Rp3749
ag65
(g26
S':\x04\x91\xe7\xc5\xee*@'
p3750
tp3751
Rp3752
asbag1
(g11
g3
Ntp3753
Rp3754
(dp3755
g15
g16
(g17
(I0
tp3756
g19
tp3757
Rp3758
(I1
(I2
tp3759
g26
I00
S'\x08\xb1\xe2\xe7x\x8d1@U\x03\xd0\xf8(\xce_@'
p3760
tp3761
bsg31
(lp3762
g16
(g17
(I0
tp3763
g19
tp3764
Rp3765
(I1
(I2
tp3766
g26
I00
S'\x08\xb1\xe2\xe7x\x8d1@U\x03\xd0\xf8(\xce_@'
p3767
tp3768
basg63
(lp3769
g65
(g26
S'\xe0\x1an\x96\xbd\xd1?@'
p3770
tp3771
Rp3772
asg81
g16
(g17
(I0
tp3773
g19
tp3774
Rp3775
(I1
(I2
tp3776
g26
I00
S'\x08\xb1\xe2\xe7x\x8d1@\xf9?\x02F\xf1\xd3[@'
p3777
tp3778
bsg88
(lp3779
g65
(g26
S'\xdaD\xfe\xa47\x035@'
p3780
tp3781
Rp3782
asbag1
(g11
g3
Ntp3783
Rp3784
(dp3785
g15
g16
(g17
(I0
tp3786
g19
tp3787
Rp3788
(I1
(I2
tp3789
g26
I00
S'T\xf6\xbab\x16\xa5a@\x9e\x03-|u\xb3v@'
p3790
tp3791
bsg31
(lp3792
g16
(g17
(I0
tp3793
g19
tp3794
Rp3795
(I1
(I2
tp3796
g26
I00
S'T\xf6\xbab\x16\xa5a@\x9e\x03-|u\xb3v@'
p3797
tp3798
bag16
(g17
(I0
tp3799
g19
tp3800
Rp3801
(I1
(I2
tp3802
g26
I00
S'|\x13p9b\x0b`@]\xd2\x0f<I)x@'
p3803
tp3804
bag16
(g17
(I0
tp3805
g19
tp3806
Rp3807
(I1
(I2
tp3808
g26
I00
S'\x9f\xc4\xcf\x8a\x15\xcd]@\xf4\x91\xdb\xcf\xc7nx@'
p3809
tp3810
basg63
(lp3811
g65
(g26
S'D\xa39\x87\xec\x9fH@'
p3812
tp3813
Rp3814
ag65
(g26
S'\xa8\x8d\xb73,=C@'
p3815
tp3816
Rp3817
ag65
(g26
S'\x0b\xa3I:\xd2BA@'
p3818
tp3819
Rp3820
asg81
g16
(g17
(I0
tp3821
g19
tp3822
Rp3823
(I1
(I2
tp3824
g26
I00
S'T\xf6\xbab\x16\xa5a@ji\xb9\xb3v)u@'
p3825
tp3826
bsg88
(lp3827
g65
(g26
S"\xb0\xaa\xe0\xaa\xeeF'@"
p3828
tp3829
Rp3830
ag65
(g26
S'\xb4y\xc9\x92\x97\n1@'
p3831
tp3832
Rp3833
ag65
(g26
S'\xc8\x97\xcf\xa4\xb8\xb8;@'
p3834
tp3835
Rp3836
asbag1
(g11
g3
Ntp3837
Rp3838
(dp3839
g15
g16
(g17
(I0
tp3840
g19
tp3841
Rp3842
(I1
(I2
tp3843
g26
I00
S'\x99\xd3\xfe^\xc8\xbdS@\xff\xb3\x98D\xf7eV@'
p3844
tp3845
bsg31
(lp3846
g16
(g17
(I0
tp3847
g19
tp3848
Rp3849
(I1
(I2
tp3850
g26
I00
S'\x99\xd3\xfe^\xc8\xbdS@\xff\xb3\x98D\xf7eV@'
p3851
tp3852
bag16
(g17
(I0
tp3853
g19
tp3854
Rp3855
(I1
(I2
tp3856
g26
I00
S"F}\x16\xd1\xe0\xeeK@\xff0'\xacZ\xf3S@"
p3857
tp3858
basg63
(lp3859
g65
(g26
S'n\x19?\xc8%\xa4,@'
p3860
tp3861
Rp3862
ag65
(g26
S'5m)\xe9\xf2\x182@'
p3863
tp3864
Rp3865
asg81
g16
(g17
(I0
tp3866
g19
tp3867
Rp3868
(I1
(I2
tp3869
g26
I00
S'F}\x16\xd1\xe0\xeeK@X\x03\x02O<\xb0Q@'
p3870
tp3871
bsg88
(lp3872
g65
(g26
S'\xa5\xb6\x18e\xc8I8@'
p3873
tp3874
Rp3875
ag65
(g26
S'*\xf3\x05\x1f$\xca8@'
p3876
tp3877
Rp3878
asbag1
(g11
g3
Ntp3879
Rp3880
(dp3881
g15
g16
(g17
(I0
tp3882
g19
tp3883
Rp3884
(I1
(I2
tp3885
g26
I00
S"\x16\x9c'\x88\xb3\xcem@\x05z3\xd6s\xeeb@"
p3886
tp3887
bsg31
(lp3888
g16
(g17
(I0
tp3889
g19
tp3890
Rp3891
(I1
(I2
tp3892
g26
I00
S"\x16\x9c'\x88\xb3\xcem@\x05z3\xd6s\xeeb@"
p3893
tp3894
bag16
(g17
(I0
tp3895
g19
tp3896
Rp3897
(I1
(I2
tp3898
g26
I00
S"\xb2\x88M-'\xd2n@\x1b\xbc\xc3\xe5\xf2'`@"
p3899
tp3900
basg63
(lp3901
g65
(g26
S'\xe6\x81\x80\x8f\xd0}H@'
p3902
tp3903
Rp3904
ag65
(g26
S'\xf67\xb7d&\x819@'
p3905
tp3906
Rp3907
asg81
g16
(g17
(I0
tp3908
g19
tp3909
Rp3910
(I1
(I2
tp3911
g26
I00
S"\xb2\x88M-'\xd2n@7\x91\xf0\xfe\xc0\x1f]@"
p3912
tp3913
bsg88
(lp3914
g65
(g26
S'>\x83\x84\x88C\r4@'
p3915
tp3916
Rp3917
ag65
(g26
S'|N\x14\xcd\xb1\x1e)@'
p3918
tp3919
Rp3920
asbag1
(g11
g3
Ntp3921
Rp3922
(dp3923
g15
g16
(g17
(I0
tp3924
g19
tp3925
Rp3926
(I1
(I2
tp3927
g26
I00
S'X\x93\xccO\x9e\xb4S@P6\xe0\x89\x02Kf@'
p3928
tp3929
bsg31
(lp3930
g16
(g17
(I0
tp3931
g19
tp3932
Rp3933
(I1
(I2
tp3934
g26
I00
S'X\x93\xccO\x9e\xb4S@P6\xe0\x89\x02Kf@'
p3935
tp3936
bag16
(g17
(I0
tp3937
g19
tp3938
Rp3939
(I1
(I2
tp3940
g26
I00
S'\xa0\x0f\xdd-\xe5\x04P@\xdf\xf6\xbc\t>\xc7f@'
p3941
tp3942
bag16
(g17
(I0
tp3943
g19
tp3944
Rp3945
(I1
(I2
tp3946
g26
I00
S'P<\x8c\xe7\xcf#K@\x10L\x81\xb4\xc3gc@'
p3947
tp3948
basg63
(lp3949
g65
(g26
S'&\x98\x90\xf9&pC@'
p3950
tp3951
Rp3952
ag65
(g26
S'\xbf\xc3m\xb5\xb0DF@'
p3953
tp3954
Rp3955
ag65
(g26
S'\x04\xcc\xeb;\xc9\xa2H@'
p3956
tp3957
Rp3958
asg81
g16
(g17
(I0
tp3959
g19
tp3960
Rp3961
(I1
(I2
tp3962
g26
I00
S'P<\x8c\xe7\xcf#K@\x90\xd2\x03\x8djS`@'
p3963
tp3964
bsg88
(lp3965
g65
(g26
S'\x08\x99h]\xba\xc40@'
p3966
tp3967
Rp3968
ag65
(g26
S'\x117\xb3\xbf\xf9]4@'
p3969
tp3970
Rp3971
ag65
(g26
S'\x8b\xe5 \xb7\xe8$6@'
p3972
tp3973
Rp3974
asbag1
(g11
g3
Ntp3975
Rp3976
(dp3977
g15
g16
(g17
(I0
tp3978
g19
tp3979
Rp3980
(I1
(I2
tp3981
g26
I00
S'\xed\x1e\xcf\xa6\xd8`q@\x89\xbb\xa5\x7f\xef\xdcj@'
p3982
tp3983
bsg31
(lp3984
g16
(g17
(I0
tp3985
g19
tp3986
Rp3987
(I1
(I2
tp3988
g26
I00
S'\xed\x1e\xcf\xa6\xd8`q@\x89\xbb\xa5\x7f\xef\xdcj@'
p3989
tp3990
basg63
(lp3991
g65
(g26
S'x\x07T\x10|c5@'
p3992
tp3993
Rp3994
asg81
g16
(g17
(I0
tp3995
g19
tp3996
Rp3997
(I1
(I2
tp3998
g26
I00
S'\xed\x1e\xcf\xa6\xd8`q@\x12{\xa0\xbe\xb7\x86i@'
p3999
tp4000
bsg88
(lp4001
g65
(g26
S'\x87\x9ez\xdfS\xfa)@'
p4002
tp4003
Rp4004
asbag1
(g11
g3
Ntp4005
Rp4006
(dp4007
g15
g16
(g17
(I0
tp4008
g19
tp4009
Rp4010
(I1
(I2
tp4011
g26
I00
S'\xfb\xcaM=\x06\xa0{@\xe8\xadG>\xa6\x88\x0e@'
p4012
tp4013
bsg31
(lp4014
g16
(g17
(I0
tp4015
g19
tp4016
Rp4017
(I1
(I2
tp4018
g26
I00
S'\xfb\xcaM=\x06\xa0{@\xe8\xadG>\xa6\x88\x0e@'
p4019
tp4020
basg63
(lp4021
g65
(g26
S'Q\xd0\x1f\xb0\xe2 H@'
p4022
tp4023
Rp4024
asg81
g16
(g17
(I0
tp4025
g19
tp4026
Rp4027
(I1
(I2
tp4028
g26
I00
S'\xfb\xcaM=\x06\xa0{@\x94\xdaV\xe8\xcdO4\xc0'
p4029
tp4030
bsg88
(lp4031
g65
(g26
S'\x13\xcc\xfc\x84\x9d\xf9<@'
p4032
tp4033
Rp4034
asbag1
(g11
g3
Ntp4035
Rp4036
(dp4037
g15
g16
(g17
(I0
tp4038
g19
tp4039
Rp4040
(I1
(I2
tp4041
g26
I00
S't|\x049\x13\xb2y@F\xec\xdb\xebM\x926@'
p4042
tp4043
bsg31
(lp4044
g16
(g17
(I0
tp4045
g19
tp4046
Rp4047
(I1
(I2
tp4048
g26
I00
S't|\x049\x13\xb2y@F\xec\xdb\xebM\x926@'
p4049
tp4050
basg63
(lp4051
g65
(g26
S'(Z\xbf\xd3\xc6n>@'
p4052
tp4053
Rp4054
asg81
g16
(g17
(I0
tp4055
g19
tp4056
Rp4057
(I1
(I2
tp4058
g26
I00
S't|\x049\x13\xb2y@\xc8\xfc\xf0\x07\xaak\x1d@'
p4059
tp4060
bsg88
(lp4061
g65
(g26
S'\xefY\r\xb0N\xcb:@'
p4062
tp4063
Rp4064
asbag1
(g11
g3
Ntp4065
Rp4066
(dp4067
g15
g16
(g17
(I0
tp4068
g19
tp4069
Rp4070
(I1
(I2
tp4071
g26
I00
S'b\x19\x1eYI\xf0p@v\xf6A\xa8&\x1fz@'
p4072
tp4073
bsg31
(lp4074
g16
(g17
(I0
tp4075
g19
tp4076
Rp4077
(I1
(I2
tp4078
g26
I00
S'b\x19\x1eYI\xf0p@v\xf6A\xa8&\x1fz@'
p4079
tp4080
basg63
(lp4081
g65
(g26
S'gT\x10\xf7\xfc\x1cH@'
p4082
tp4083
Rp4084
asg81
g16
(g17
(I0
tp4085
g19
tp4086
Rp4087
(I1
(I2
tp4088
g26
I00
S'b\x19\x1eYI\xf0p@0\xf1\xd0\xd8V\x9dx@'
p4089
tp4090
bsg88
(lp4091
g65
(g26
S'<`P\xa2\xf7\\$@'
p4092
tp4093
Rp4094
asbag1
(g11
g3
Ntp4095
Rp4096
(dp4097
g15
g16
(g17
(I0
tp4098
g19
tp4099
Rp4100
(I1
(I2
tp4101
g26
I00
S'\x81\xf2=\x15\x8a.\x83@\xdfu\x12\xefB\xd8E@'
p4102
tp4103
bsg31
(lp4104
g16
(g17
(I0
tp4105
g19
tp4106
Rp4107
(I1
(I2
tp4108
g26
I00
S'\x81\xf2=\x15\x8a.\x83@\xdfu\x12\xefB\xd8E@'
p4109
tp4110
basg63
(lp4111
g65
(g26
S'8\x0bRG\x90\xa4&@'
p4112
tp4113
Rp4114
asg81
g16
(g17
(I0
tp4115
g19
tp4116
Rp4117
(I1
(I2
tp4118
g26
I00
S'\x81\xf2=\x15\x8a.\x83@x4(\xe6\xb0\x03C@'
p4119
tp4120
bsg88
(lp4121
g65
(g26
S'*\xb2{\xbc\xcc\xc71@'
p4122
tp4123
Rp4124
asbag1
(g11
g3
Ntp4125
Rp4126
(dp4127
g15
g16
(g17
(I0
tp4128
g19
tp4129
Rp4130
(I1
(I2
tp4131
g26
I00
S'z\xfa\xdc\r\xc9\xban@\x7fd%K(\xcal@'
p4132
tp4133
bsg31
(lp4134
g16
(g17
(I0
tp4135
g19
tp4136
Rp4137
(I1
(I2
tp4138
g26
I00
S'z\xfa\xdc\r\xc9\xban@\x7fd%K(\xcal@'
p4139
tp4140
basg63
(lp4141
g65
(g26
S'\xab\x87\x80\xa9\x91\xdb3@'
p4142
tp4143
Rp4144
asg81
g16
(g17
(I0
tp4145
g19
tp4146
Rp4147
(I1
(I2
tp4148
g26
I00
S'z\xfa\xdc\r\xc9\xban@\x04\\\x8d0o\x8ck@'
p4149
tp4150
bsg88
(lp4151
g65
(g26
S'T\x8e\x0e\xf3p\xce<@'
p4152
tp4153
Rp4154
asbag1
(g11
g3
Ntp4155
Rp4156
(dp4157
g15
g16
(g17
(I0
tp4158
g19
tp4159
Rp4160
(I1
(I2
tp4161
g26
I00
S'\xd0\xc7\xd8\x02\xa8\xa3\x13@p\xdf,\xcdnAn@'
p4162
tp4163
bsg31
(lp4164
g16
(g17
(I0
tp4165
g19
tp4166
Rp4167
(I1
(I2
tp4168
g26
I00
S'\xd0\xc7\xd8\x02\xa8\xa3\x13@p\xdf,\xcdnAn@'
p4169
tp4170
basg63
(lp4171
g65
(g26
S'\xf7\xed\xb3\xa78qA@'
p4172
tp4173
Rp4174
asg81
g16
(g17
(I0
tp4175
g19
tp4176
Rp4177
(I1
(I2
tp4178
g26
I00
S'\xd0\xc7\xd8\x02\xa8\xa3\x13@\xb1a6\xb8G\x13l@'
p4179
tp4180
bsg88
(lp4181
g65
(g26
S'\xde{\xdb\xc5=S;@'
p4182
tp4183
Rp4184
asbag1
(g11
g3
Ntp4185
Rp4186
(dp4187
g15
g16
(g17
(I0
tp4188
g19
tp4189
Rp4190
(I1
(I2
tp4191
g26
I00
S'\xc6\xf4\xa7*\xe2\x17\x80@(\xb2\xba\xac\xe9\tZ@'
p4192
tp4193
bsg31
(lp4194
g16
(g17
(I0
tp4195
g19
tp4196
Rp4197
(I1
(I2
tp4198
g26
I00
S'\xc6\xf4\xa7*\xe2\x17\x80@(\xb2\xba\xac\xe9\tZ@'
p4199
tp4200
basg63
(lp4201
g65
(g26
S'\xfb\xc7\xce\xb6\xe5A1@'
p4202
tp4203
Rp4204
asg81
g16
(g17
(I0
tp4205
g19
tp4206
Rp4207
(I1
(I2
tp4208
g26
I00
S'\xc6\xf4\xa7*\xe2\x17\x80@)\xd9\xe0\xf5\xac\xe1W@'
p4209
tp4210
bsg88
(lp4211
g65
(g26
S'9\x00Cc\xfb\x0b-@'
p4212
tp4213
Rp4214
asbag1
(g11
g3
Ntp4215
Rp4216
(dp4217
g15
g16
(g17
(I0
tp4218
g19
tp4219
Rp4220
(I1
(I2
tp4221
g26
I00
S'\xc0\xb9\x93\x01\xf4\xb2t@b(zm\x9bNE@'
p4222
tp4223
bsg31
(lp4224
g16
(g17
(I0
tp4225
g19
tp4226
Rp4227
(I1
(I2
tp4228
g26
I00
S'\xc0\xb9\x93\x01\xf4\xb2t@b(zm\x9bNE@'
p4229
tp4230
bag16
(g17
(I0
tp4231
g19
tp4232
Rp4233
(I1
(I2
tp4234
g26
I00
S'\xa3\x16\xa4xlfu@\xf4sb\xb2\x890D@'
p4235
tp4236
basg63
(lp4237
g65
(g26
S'\xf9\xf4t\x8d\x08\xa83@'
p4238
tp4239
Rp4240
ag65
(g26
S't\x03\xe7?\xc5\x847@'
p4241
tp4242
Rp4243
asg81
g16
(g17
(I0
tp4244
g19
tp4245
Rp4246
(I1
(I2
tp4247
g26
I00
S'\xa3\x16\xa4xlfu@.f\xd1\xc4\xb0\x9e<@'
p4248
tp4249
bsg88
(lp4250
g65
(g26
S'\xd4\xad&\xec@\x90=@'
p4251
tp4252
Rp4253
ag65
(g26
S'm\x96\t\xdf\x8d>2@'
p4254
tp4255
Rp4256
asbag1
(g11
g3
Ntp4257
Rp4258
(dp4259
g15
g16
(g17
(I0
tp4260
g19
tp4261
Rp4262
(I1
(I2
tp4263
g26
I00
S'Bf\xb5\xcam\xfcB@\x8f\xc3\xe7K{\x8dx@'
p4264
tp4265
bsg31
(lp4266
g16
(g17
(I0
tp4267
g19
tp4268
Rp4269
(I1
(I2
tp4270
g26
I00
S'Bf\xb5\xcam\xfcB@\x8f\xc3\xe7K{\x8dx@'
p4271
tp4272
bag16
(g17
(I0
tp4273
g19
tp4274
Rp4275
(I1
(I2
tp4276
g26
I00
S'\xfe\x10H\xe1^@N@&[\x1a\r#\xcfv@'
p4277
tp4278
basg63
(lp4279
g65
(g26
S'\x8e\xfe\xcc4\x01\x95C@'
p4280
tp4281
Rp4282
ag65
(g26
S'\x0c\xd0\xd6\xefZ\x9aD@'
p4283
tp4284
Rp4285
asg81
g16
(g17
(I0
tp4286
g19
tp4287
Rp4288
(I1
(I2
tp4289
g26
I00
S'\xfe\x10H\xe1^@N@%\xee\x1c^}\x85u@'
p4290
tp4291
bsg88
(lp4292
g65
(g26
S'\x82\xf7\xd3\x00\x7f\xed<@'
p4293
tp4294
Rp4295
ag65
(g26
S'\x1d\\\xdc\xdb\x97j=@'
p4296
tp4297
Rp4298
asbag1
(g11
g3
Ntp4299
Rp4300
(dp4301
g15
g16
(g17
(I0
tp4302
g19
tp4303
Rp4304
(I1
(I2
tp4305
g26
I00
S'\xb2FN\xba\xcb\xd7^@\x86\xeb\xf2\x8b\xa6Hh@'
p4306
tp4307
bsg31
(lp4308
g16
(g17
(I0
tp4309
g19
tp4310
Rp4311
(I1
(I2
tp4312
g26
I00
S'\xb2FN\xba\xcb\xd7^@\x86\xeb\xf2\x8b\xa6Hh@'
p4313
tp4314
bag16
(g17
(I0
tp4315
g19
tp4316
Rp4317
(I1
(I2
tp4318
g26
I00
S'\x10\x85\x0e(tV^@\x8fo\x97\xfd\r\x1ac@'
p4319
tp4320
bag16
(g17
(I0
tp4321
g19
tp4322
Rp4323
(I1
(I2
tp4324
g26
I00
S';G\xa8\xeff\xd0\\@\xcd\xee\xd1\x8f\x8d\xcbd@'
p4325
tp4326
basg63
(lp4327
g65
(g26
S'\xf7\xd9\xa7\x19\n]C@'
p4328
tp4329
Rp4330
ag65
(g26
S'.-\xab\x02\x85eA@'
p4331
tp4332
Rp4333
ag65
(g26
S'1\xd4\xbe\x1f9\x1a>@'
p4334
tp4335
Rp4336
asg81
g16
(g17
(I0
tp4337
g19
tp4338
Rp4339
(I1
(I2
tp4340
g26
I00
S'\x10\x85\x0e(tV^@\xe9\tB]]\xed`@'
p4341
tp4342
bsg88
(lp4343
g65
(g26
S'\xf2\xeds\xc6\xbaM(@'
p4344
tp4345
Rp4346
ag65
(g26
S'F\xf0 D\x15\xa94@'
p4347
tp4348
Rp4349
ag65
(g26
S'm\xb6\xe0\xd7\x89\xa3.@'
p4350
tp4351
Rp4352
asbag1
(g11
g3
Ntp4353
Rp4354
(dp4355
g15
g16
(g17
(I0
tp4356
g19
tp4357
Rp4358
(I1
(I2
tp4359
g26
I00
S"R \x04\xf2\x1a\\a@\x08\xc4'\x19\x8b\x80L@"
p4360
tp4361
bsg31
(lp4362
g16
(g17
(I0
tp4363
g19
tp4364
Rp4365
(I1
(I2
tp4366
g26
I00
S"R \x04\xf2\x1a\\a@\x08\xc4'\x19\x8b\x80L@"
p4367
tp4368
basg63
(lp4369
g65
(g26
S'\x9f[\xa9\x956\xe20@'
p4370
tp4371
Rp4372
asg81
g16
(g17
(I0
tp4373
g19
tp4374
Rp4375
(I1
(I2
tp4376
g26
I00
S'R \x04\xf2\x1a\\a@ m\xbds\xfdGH@'
p4377
tp4378
bsg88
(lp4379
g65
(g26
S'\xa1\xe2D\xce\xfcf=@'
p4380
tp4381
Rp4382
asbasg2169
g2170
sbs.